---
triple:          'arm64-apple-darwin'
binary-path:     main
relocations:
  - { offset: 0x1E, size: 0x8, addend: 0x0, symName: '__ZN103_$LT$alloc..vec..into_iter..IntoIter$LT$T$C$A$GT$$u20$as$u20$core..iter..traits..iterator..Iterator$GT$9size_hint17h17bd481c2a6ca888E', symObjAddr: 0x0, symBinAddr: 0x1000030D0, symSize: 0x6C }
  - { offset: 0x68, size: 0x8, addend: 0x0, symName: '__ZN3std2rt10lang_start28_$u7b$$u7b$closure$u7d$$u7d$17h7b2df57184339d76E', symObjAddr: 0x2F8, symBinAddr: 0x1000033C8, symSize: 0x34 }
  - { offset: 0xD2, size: 0x8, addend: 0x0, symName: __ZN3std2rt10lang_start17h47cb98619fcdb686E, symObjAddr: 0x28C, symBinAddr: 0x10000335C, symSize: 0x6C }
  - { offset: 0x668, size: 0x8, addend: 0x0, symName: '__ZN78_$LT$$u21$$u20$as$u20$std..sys..thread_local..native..lazy..DestroyedState$GT$13register_dtor17h736597601b3ac668E', symObjAddr: 0x3D88, symBinAddr: 0x100006B68, symSize: 0x10 }
  - { offset: 0x69E, size: 0x8, addend: 0x0, symName: __ZN3std3sys9backtrace28__rust_begin_short_backtrace17ha5052d5989980a63E, symObjAddr: 0x654, symBinAddr: 0x1000034C0, symSize: 0x24 }
  - { offset: 0x7C8, size: 0x8, addend: 0x0, symName: '__ZN3std4hash6random11RandomState3new28_$u7b$$u7b$closure$u7d$$u7d$17h4b898cdb86817b85E', symObjAddr: 0x678, symBinAddr: 0x1000034E4, symSize: 0x2C }
  - { offset: 0x89F, size: 0x8, addend: 0x0, symName: '__ZN3std4hash6random11RandomState3new4KEYS29_$u7b$$u7b$constant$u7d$$u7d$28_$u7b$$u7b$closure$u7d$$u7d$17hb0ae963adddcb96eE', symObjAddr: 0x6A4, symBinAddr: 0x100003510, symSize: 0x3C }
  - { offset: 0x8DD, size: 0x8, addend: 0x0, symName: __ZN3std4hash6random11RandomState3new4KEYS6__init17hf471e21d57967d74E, symObjAddr: 0x6E0, symBinAddr: 0x10000354C, symSize: 0x24 }
  - { offset: 0xCAC, size: 0x8, addend: 0x0, symName: __ZN4core4sync6atomic11atomic_load17h43ea3ecccd9ac11cE, symObjAddr: 0x2EB8, symBinAddr: 0x100005C98, symSize: 0x14C }
  - { offset: 0xD1E, size: 0x8, addend: 0x0, symName: __ZN4core4sync6atomic11atomic_load17hdbee57116eb28efbE, symObjAddr: 0x3004, symBinAddr: 0x100005DE4, symSize: 0x14C }
  - { offset: 0xD90, size: 0x8, addend: 0x0, symName: __ZN4core4sync6atomic12atomic_store17hc28c2e6fa71b69acE, symObjAddr: 0x3150, symBinAddr: 0x100005F30, symSize: 0x150 }
  - { offset: 0x115D, size: 0x8, addend: 0x0, symName: '__ZN42_$LT$$RF$T$u20$as$u20$core..fmt..Debug$GT$3fmt17hfa1d1f6380360951E', symObjAddr: 0x7A8, symBinAddr: 0x100003614, symSize: 0x30 }
  - { offset: 0x11A9, size: 0x8, addend: 0x0, symName: '__ZN44_$LT$$RF$T$u20$as$u20$core..fmt..Display$GT$3fmt17hcd7758c6f3ea7b8fE', symObjAddr: 0x7D8, symBinAddr: 0x100003644, symSize: 0x3C }
  - { offset: 0x11F5, size: 0x8, addend: 0x0, symName: '__ZN45_$LT$$LP$$RP$$u20$as$u20$core..fmt..Debug$GT$3fmt17he3a568f2303c1228E', symObjAddr: 0x814, symBinAddr: 0x100003680, symSize: 0x40 }
  - { offset: 0x1352, size: 0x8, addend: 0x0, symName: '__ZN4core3cmp5impls50_$LT$impl$u20$core..cmp..Ord$u20$for$u20$usize$GT$3cmp17h68cd0f8f855b0c40E', symObjAddr: 0xBCC, symBinAddr: 0x100003A34, symSize: 0x38 }
  - { offset: 0x1395, size: 0x8, addend: 0x0, symName: '__ZN4core3cmp5impls69_$LT$impl$u20$core..cmp..PartialEq$LT$$RF$B$GT$$u20$for$u20$$RF$A$GT$2eq17h368f0765a5b29633E', symObjAddr: 0xC04, symBinAddr: 0x100003A6C, symSize: 0x44 }
  - { offset: 0x2371, size: 0x8, addend: 0x0, symName: '__ZN4core3ptr9const_ptr33_$LT$impl$u20$$BP$const$u20$T$GT$7sub_ptr18precondition_check17ha39497152f4cec4bE', symObjAddr: 0x1D54, symBinAddr: 0x100004B34, symSize: 0x40 }
  - { offset: 0x2661, size: 0x8, addend: 0x0, symName: '__ZN4core3ptr101drop_in_place$LT$std..io..error..ErrorData$LT$alloc..boxed..Box$LT$std..io..error..Custom$GT$$GT$$GT$17hc84ced7ba95e8a6aE', symObjAddr: 0x10C0, symBinAddr: 0x100003F28, symSize: 0x48 }
  - { offset: 0x2690, size: 0x8, addend: 0x0, symName: '__ZN4core3ptr102drop_in_place$LT$hashbrown..set..HashSet$LT$$LP$u16$C$u16$RP$$C$std..hash..random..RandomState$GT$$GT$17h43e2b84f5009ef3aE', symObjAddr: 0x1108, symBinAddr: 0x100003F70, symSize: 0x24 }
  - { offset: 0x26BF, size: 0x8, addend: 0x0, symName: '__ZN4core3ptr110drop_in_place$LT$$LP$$LP$u16$C$u16$RP$$C$std..collections..hash..set..HashSet$LT$$LP$u16$C$u16$RP$$GT$$RP$$GT$17h0b118064a0c3d543E', symObjAddr: 0x112C, symBinAddr: 0x100003F94, symSize: 0x24 }
  - { offset: 0x26EE, size: 0x8, addend: 0x0, symName: '__ZN4core3ptr113drop_in_place$LT$hashbrown..map..HashMap$LT$$LP$u16$C$u16$RP$$C$$LP$$RP$$C$std..hash..random..RandomState$GT$$GT$17hecb20df84eee27c9E', symObjAddr: 0x1150, symBinAddr: 0x100003FB8, symSize: 0x24 }
  - { offset: 0x271D, size: 0x8, addend: 0x0, symName: '__ZN4core3ptr118drop_in_place$LT$alloc..boxed..Box$LT$dyn$u20$core..error..Error$u2b$core..marker..Send$u2b$core..marker..Sync$GT$$GT$17h12b5901f8281bb2aE', symObjAddr: 0x1174, symBinAddr: 0x100003FDC, symSize: 0x80 }
  - { offset: 0x274C, size: 0x8, addend: 0x0, symName: '__ZN4core3ptr131drop_in_place$LT$hashbrown..raw..RawTable$LT$$LP$$LP$u16$C$u16$RP$$C$$LP$i8$C$$LP$u16$C$u16$RP$$C$$LP$u16$C$u16$RP$$RP$$RP$$GT$$GT$17hd788925c5684db2aE', symObjAddr: 0x11F4, symBinAddr: 0x10000405C, symSize: 0x24 }
  - { offset: 0x277B, size: 0x8, addend: 0x0, symName: '__ZN4core3ptr135drop_in_place$LT$std..collections..hash..map..HashMap$LT$$LP$u16$C$u16$RP$$C$$LP$i8$C$$LP$u16$C$u16$RP$$C$$LP$u16$C$u16$RP$$RP$$GT$$GT$17hc7b3f0f1b7218c9bE', symObjAddr: 0x1218, symBinAddr: 0x100004080, symSize: 0x24 }
  - { offset: 0x27AA, size: 0x8, addend: 0x0, symName: '__ZN4core3ptr136drop_in_place$LT$std..sync..poison..mutex..MutexGuard$LT$std..io..buffered..bufreader..BufReader$LT$std..io..stdio..StdinRaw$GT$$GT$$GT$17hc1f24f852c3b3f39E', symObjAddr: 0x123C, symBinAddr: 0x1000040A4, symSize: 0x24 }
  - { offset: 0x27D9, size: 0x8, addend: 0x0, symName: '__ZN4core3ptr142drop_in_place$LT$hashbrown..raw..RawTable$LT$$LP$$LP$u16$C$u16$RP$$C$std..collections..hash..set..HashSet$LT$$LP$u16$C$u16$RP$$GT$$RP$$GT$$GT$17hb31161cd7a90386dE', symObjAddr: 0x1260, symBinAddr: 0x1000040C8, symSize: 0x24 }
  - { offset: 0x2808, size: 0x8, addend: 0x0, symName: '__ZN4core3ptr146drop_in_place$LT$std..collections..hash..map..HashMap$LT$$LP$u16$C$u16$RP$$C$std..collections..hash..set..HashSet$LT$$LP$u16$C$u16$RP$$GT$$GT$$GT$17h424283e8f7724c53E', symObjAddr: 0x1284, symBinAddr: 0x1000040EC, symSize: 0x24 }
  - { offset: 0x2837, size: 0x8, addend: 0x0, symName: __ZN4core3ptr14read_unaligned17h042cd62e7c109d87E, symObjAddr: 0x12A8, symBinAddr: 0x100004110, symSize: 0x8C }
  - { offset: 0x290B, size: 0x8, addend: 0x0, symName: '__ZN4core3ptr155drop_in_place$LT$hashbrown..map..HashMap$LT$$LP$u16$C$u16$RP$$C$$LP$i8$C$$LP$u16$C$u16$RP$$C$$LP$u16$C$u16$RP$$RP$$C$std..hash..random..RandomState$GT$$GT$17h324f3812f3340a3dE', symObjAddr: 0x1334, symBinAddr: 0x10000419C, symSize: 0x24 }
  - { offset: 0x293A, size: 0x8, addend: 0x0, symName: '__ZN4core3ptr166drop_in_place$LT$hashbrown..map..HashMap$LT$$LP$u16$C$u16$RP$$C$std..collections..hash..set..HashSet$LT$$LP$u16$C$u16$RP$$GT$$C$std..hash..random..RandomState$GT$$GT$17h65da9e0f6f08dc2eE', symObjAddr: 0x1358, symBinAddr: 0x1000041C0, symSize: 0x24 }
  - { offset: 0x2969, size: 0x8, addend: 0x0, symName: '__ZN4core3ptr180drop_in_place$LT$$LT$alloc..vec..into_iter..IntoIter$LT$T$C$A$GT$$u20$as$u20$core..ops..drop..Drop$GT$..drop..DropGuard$LT$std..ffi..os_str..OsString$C$alloc..alloc..Global$GT$$GT$17hc3b5b36fafc04ef4E', symObjAddr: 0x137C, symBinAddr: 0x1000041E4, symSize: 0x24 }
  - { offset: 0x2998, size: 0x8, addend: 0x0, symName: '__ZN4core3ptr35drop_in_place$LT$std..env..Args$GT$17he378c0d4c7130829E', symObjAddr: 0x13B0, symBinAddr: 0x100004208, symSize: 0x24 }
  - { offset: 0x29C7, size: 0x8, addend: 0x0, symName: '__ZN4core3ptr37drop_in_place$LT$std..env..ArgsOs$GT$17h42e34ca3a0e0fe2bE', symObjAddr: 0x13D4, symBinAddr: 0x10000422C, symSize: 0x24 }
  - { offset: 0x29F6, size: 0x8, addend: 0x0, symName: '__ZN4core3ptr42drop_in_place$LT$alloc..string..String$GT$17hfd62a1624fb768e4E', symObjAddr: 0x13F8, symBinAddr: 0x100004250, symSize: 0x24 }
  - { offset: 0x2A25, size: 0x8, addend: 0x0, symName: '__ZN4core3ptr42drop_in_place$LT$std..io..error..Error$GT$17h3581c9857c050a8dE', symObjAddr: 0x141C, symBinAddr: 0x100004274, symSize: 0x24 }
  - { offset: 0x2A54, size: 0x8, addend: 0x0, symName: '__ZN4core3ptr43drop_in_place$LT$std..io..error..Custom$GT$17h0cb4d01a06ed52aeE', symObjAddr: 0x1440, symBinAddr: 0x100004298, symSize: 0x24 }
  - { offset: 0x2A83, size: 0x8, addend: 0x0, symName: '__ZN4core3ptr46drop_in_place$LT$alloc..vec..Vec$LT$u8$GT$$GT$17h1d8aa0aea4bca3f9E', symObjAddr: 0x1464, symBinAddr: 0x1000042BC, symSize: 0x5C }
  - { offset: 0x2AB2, size: 0x8, addend: 0x0, symName: '__ZN4core3ptr46drop_in_place$LT$std..io..stdio..StdinLock$GT$17h2c1286778f655218E', symObjAddr: 0x14C0, symBinAddr: 0x100004318, symSize: 0x24 }
  - { offset: 0x2AE1, size: 0x8, addend: 0x0, symName: '__ZN4core3ptr47drop_in_place$LT$std..ffi..os_str..OsString$GT$17h065cac63cf1a6887E', symObjAddr: 0x14E4, symBinAddr: 0x10000433C, symSize: 0x24 }
  - { offset: 0x2B10, size: 0x8, addend: 0x0, symName: '__ZN4core3ptr49drop_in_place$LT$std..sys..os_str..bytes..Buf$GT$17hc3966ae4426ff01eE', symObjAddr: 0x1508, symBinAddr: 0x100004360, symSize: 0x24 }
  - { offset: 0x2B3F, size: 0x8, addend: 0x0, symName: '__ZN4core3ptr51drop_in_place$LT$alloc..vec..Vec$LT$$RF$str$GT$$GT$17h1102404357a3dd54E', symObjAddr: 0x152C, symBinAddr: 0x100004384, symSize: 0x5C }
  - { offset: 0x2B6E, size: 0x8, addend: 0x0, symName: '__ZN4core3ptr51drop_in_place$LT$main..spreadsheet..Spreadsheet$GT$17h31add597469b8cbeE', symObjAddr: 0x1588, symBinAddr: 0x1000043E0, symSize: 0xC0 }
  - { offset: 0x2B9D, size: 0x8, addend: 0x0, symName: '__ZN4core3ptr52drop_in_place$LT$$u5b$alloc..string..String$u5d$$GT$17h6771a1fba929d729E', symObjAddr: 0x1648, symBinAddr: 0x1000044A0, symSize: 0xC4 }
  - { offset: 0x2BCC, size: 0x8, addend: 0x0, symName: '__ZN4core3ptr52drop_in_place$LT$std..sys..pal..unix..args..Args$GT$17h0c0f984db5f79c23E', symObjAddr: 0x170C, symBinAddr: 0x100004564, symSize: 0x24 }
  - { offset: 0x2BFB, size: 0x8, addend: 0x0, symName: '__ZN4core3ptr53drop_in_place$LT$alloc..raw_vec..RawVec$LT$u8$GT$$GT$17he3411eb2e849970bE', symObjAddr: 0x1740, symBinAddr: 0x100004588, symSize: 0x24 }
  - { offset: 0x2C2A, size: 0x8, addend: 0x0, symName: '__ZN4core3ptr57drop_in_place$LT$$u5b$std..ffi..os_str..OsString$u5d$$GT$17h9df290c01c6df040E', symObjAddr: 0x1774, symBinAddr: 0x1000045AC, symSize: 0xC4 }
  - { offset: 0x2C59, size: 0x8, addend: 0x0, symName: '__ZN4core3ptr57drop_in_place$LT$std..io..error..repr_bitpacked..Repr$GT$17hdfd78b2d040a6b93E', symObjAddr: 0x1838, symBinAddr: 0x100004670, symSize: 0x24 }
  - { offset: 0x2C88, size: 0x8, addend: 0x0, symName: '__ZN4core3ptr58drop_in_place$LT$alloc..raw_vec..RawVec$LT$$RF$str$GT$$GT$17hed260bf9ae624bc6E', symObjAddr: 0x185C, symBinAddr: 0x100004694, symSize: 0x24 }
  - { offset: 0x2CB7, size: 0x8, addend: 0x0, symName: '__ZN4core3ptr65drop_in_place$LT$alloc..vec..Vec$LT$alloc..string..String$GT$$GT$17h2f7a4751fa0a78c9E', symObjAddr: 0x1880, symBinAddr: 0x1000046B8, symSize: 0x5C }
  - { offset: 0x2CE6, size: 0x8, addend: 0x0, symName: '__ZN4core3ptr67drop_in_place$LT$alloc..vec..Vec$LT$main..spreadsheet..Cell$GT$$GT$17hd12ebab35fa7ae98E', symObjAddr: 0x18DC, symBinAddr: 0x100004714, symSize: 0x5C }
  - { offset: 0x2D15, size: 0x8, addend: 0x0, symName: '__ZN4core3ptr68drop_in_place$LT$alloc..boxed..Box$LT$std..io..error..Custom$GT$$GT$17h75b113f96d64174cE', symObjAddr: 0x1938, symBinAddr: 0x100004770, symSize: 0x60 }
  - { offset: 0x2D44, size: 0x8, addend: 0x0, symName: '__ZN4core3ptr70drop_in_place$LT$core..option..Option$LT$alloc..string..String$GT$$GT$17hd1a05bacd4086258E', symObjAddr: 0x1998, symBinAddr: 0x1000047D0, symSize: 0x48 }
  - { offset: 0x2D73, size: 0x8, addend: 0x0, symName: '__ZN4core3ptr72drop_in_place$LT$alloc..raw_vec..RawVec$LT$alloc..string..String$GT$$GT$17hda5e49aec6c309ebE', symObjAddr: 0x19E0, symBinAddr: 0x100004818, symSize: 0x24 }
  - { offset: 0x2DA2, size: 0x8, addend: 0x0, symName: '__ZN4core3ptr74drop_in_place$LT$alloc..raw_vec..RawVec$LT$main..spreadsheet..Cell$GT$$GT$17hb6c74b4766cad114E', symObjAddr: 0x1A04, symBinAddr: 0x10000483C, symSize: 0x24 }
  - { offset: 0x2DD1, size: 0x8, addend: 0x0, symName: '__ZN4core3ptr77drop_in_place$LT$$u5b$alloc..vec..Vec$LT$main..spreadsheet..Cell$GT$$u5d$$GT$17had4613c12936a01fE', symObjAddr: 0x1A28, symBinAddr: 0x100004860, symSize: 0xC4 }
  - { offset: 0x2E00, size: 0x8, addend: 0x0, symName: '__ZN4core3ptr77drop_in_place$LT$alloc..raw_vec..RawVec$LT$std..ffi..os_str..OsString$GT$$GT$17hf1a24b149a052250E', symObjAddr: 0x1AEC, symBinAddr: 0x100004924, symSize: 0x24 }
  - { offset: 0x2E34, size: 0x8, addend: 0x0, symName: __ZN4core3ptr7replace18precondition_check17h8308b0cf5e71402dE, symObjAddr: 0x1B10, symBinAddr: 0x100004948, symSize: 0x100 }
  - { offset: 0x2F44, size: 0x8, addend: 0x0, symName: '__ZN4core3ptr82drop_in_place$LT$std..collections..hash..set..HashSet$LT$$LP$u16$C$u16$RP$$GT$$GT$17he8fd3a1ce8976151E', symObjAddr: 0x1C10, symBinAddr: 0x100004A48, symSize: 0x24 }
  - { offset: 0x2F73, size: 0x8, addend: 0x0, symName: '__ZN4core3ptr86drop_in_place$LT$alloc..vec..into_iter..IntoIter$LT$std..ffi..os_str..OsString$GT$$GT$17h1b88cdc418ea3d3bE', symObjAddr: 0x1C44, symBinAddr: 0x100004A6C, symSize: 0x24 }
  - { offset: 0x2FA2, size: 0x8, addend: 0x0, symName: '__ZN4core3ptr89drop_in_place$LT$hashbrown..raw..RawTable$LT$$LP$$LP$u16$C$u16$RP$$C$$LP$$RP$$RP$$GT$$GT$17h47599f5f6cb590d9E', symObjAddr: 0x1C68, symBinAddr: 0x100004A90, symSize: 0x24 }
  - { offset: 0x2FD1, size: 0x8, addend: 0x0, symName: '__ZN4core3ptr90drop_in_place$LT$alloc..vec..Vec$LT$alloc..vec..Vec$LT$main..spreadsheet..Cell$GT$$GT$$GT$17h550bc8ac09cd1af0E', symObjAddr: 0x1C8C, symBinAddr: 0x100004AB4, symSize: 0x5C }
  - { offset: 0x3000, size: 0x8, addend: 0x0, symName: '__ZN4core3ptr97drop_in_place$LT$alloc..raw_vec..RawVec$LT$alloc..vec..Vec$LT$main..spreadsheet..Cell$GT$$GT$$GT$17h48fac36d60b3780eE', symObjAddr: 0x1D30, symBinAddr: 0x100004B10, symSize: 0x24 }
  - { offset: 0x3D1A, size: 0x8, addend: 0x0, symName: '__ZN108_$LT$core..iter..adapters..peekable..Peekable$LT$I$GT$$u20$as$u20$core..iter..traits..iterator..Iterator$GT$4next17hf7aff2d4fb22c87fE', symObjAddr: 0x6C, symBinAddr: 0x10000313C, symSize: 0x80 }
  - { offset: 0x3E35, size: 0x8, addend: 0x0, symName: '__ZN4core4iter8adapters8peekable17Peekable$LT$I$GT$4peek28_$u7b$$u7b$closure$u7d$$u7d$17h658b5c86e02158c5E', symObjAddr: 0x2E94, symBinAddr: 0x100005C74, symSize: 0x24 }
  - { offset: 0x3F33, size: 0x8, addend: 0x0, symName: __ZN4core4iter6traits8iterator8Iterator7collect17h919647ea3ab96b03E, symObjAddr: 0x2E08, symBinAddr: 0x100005BE8, symSize: 0x1C }
  - { offset: 0x3F80, size: 0x8, addend: 0x0, symName: __ZN4core4iter6traits10exact_size17ExactSizeIterator3len17hf3860bc648d443e0E, symObjAddr: 0x2D14, symBinAddr: 0x100005AF4, symSize: 0xF4 }
  - { offset: 0x40A9, size: 0x8, addend: 0x0, symName: '__ZN63_$LT$I$u20$as$u20$core..iter..traits..collect..IntoIterator$GT$9into_iter17h534ac47386cd3ec6E', symObjAddr: 0x3B40, symBinAddr: 0x100006920, symSize: 0x14 }
  - { offset: 0x40E0, size: 0x8, addend: 0x0, symName: '__ZN63_$LT$I$u20$as$u20$core..iter..traits..collect..IntoIterator$GT$9into_iter17he5d2cb46483f211bE', symObjAddr: 0x3B54, symBinAddr: 0x100006934, symSize: 0x14 }
  - { offset: 0x4124, size: 0x8, addend: 0x0, symName: '__ZN4core4iter5range101_$LT$impl$u20$core..iter..traits..iterator..Iterator$u20$for$u20$core..ops..range..Range$LT$A$GT$$GT$4next17h664a1d61937c119cE', symObjAddr: 0x2CF0, symBinAddr: 0x100005AD0, symSize: 0x24 }
  - { offset: 0x4161, size: 0x8, addend: 0x0, symName: '__ZN89_$LT$core..ops..range..Range$LT$T$GT$$u20$as$u20$core..iter..range..RangeIteratorImpl$GT$9spec_next17hdab02e4dd4f919dcE', symObjAddr: 0x3EE4, symBinAddr: 0x100006CC4, symSize: 0x94 }
  - { offset: 0x42F0, size: 0x8, addend: 0x0, symName: '__ZN185_$LT$core..ops..control_flow..ControlFlow$LT$B$C$C$GT$$u20$as$u20$core..ops..try_trait..FromResidual$LT$core..ops..control_flow..ControlFlow$LT$B$C$core..convert..Infallible$GT$$GT$$GT$13from_residual17hd5038e9a03577a2fE', symObjAddr: 0x168, symBinAddr: 0x100003238, symSize: 0x2C }
  - { offset: 0x4334, size: 0x8, addend: 0x0, symName: '__ZN95_$LT$core..ops..control_flow..ControlFlow$LT$B$C$C$GT$$u20$as$u20$core..ops..try_trait..Try$GT$11from_output17h0328f09587cfda2eE', symObjAddr: 0x3FD4, symBinAddr: 0x100006DB4, symSize: 0x18 }
  - { offset: 0x4372, size: 0x8, addend: 0x0, symName: '__ZN95_$LT$core..ops..control_flow..ControlFlow$LT$B$C$C$GT$$u20$as$u20$core..ops..try_trait..Try$GT$6branch17he308dc91ce360280E', symObjAddr: 0x3FEC, symBinAddr: 0x100006DCC, symSize: 0x64 }
  - { offset: 0x45EC, size: 0x8, addend: 0x0, symName: '__ZN4core3ops8function5impls79_$LT$impl$u20$core..ops..function..FnMut$LT$A$GT$$u20$for$u20$$RF$mut$u20$F$GT$8call_mut17hdfbc5806fba30c8cE', symObjAddr: 0xF44, symBinAddr: 0x100003DAC, symSize: 0x30 }
  - { offset: 0x4642, size: 0x8, addend: 0x0, symName: '__ZN4core3ops8function6FnOnce40call_once$u7b$$u7b$vtable.shim$u7d$$u7d$17h16810b726cb39cbdE', symObjAddr: 0xF74, symBinAddr: 0x100003DDC, symSize: 0x28 }
  - { offset: 0x4686, size: 0x8, addend: 0x0, symName: __ZN4core3ops8function6FnOnce9call_once17h146e1265a82c3b95E, symObjAddr: 0xF9C, symBinAddr: 0x100003E04, symSize: 0x4C }
  - { offset: 0x46CA, size: 0x8, addend: 0x0, symName: __ZN4core3ops8function6FnOnce9call_once17h173d74f2daa13c0cE, symObjAddr: 0xFE8, symBinAddr: 0x100003E50, symSize: 0x4C }
  - { offset: 0x470E, size: 0x8, addend: 0x0, symName: __ZN4core3ops8function6FnOnce9call_once17h1c2d49f02b7e1d12E, symObjAddr: 0x1034, symBinAddr: 0x100003E9C, symSize: 0x1C }
  - { offset: 0x4752, size: 0x8, addend: 0x0, symName: __ZN4core3ops8function6FnOnce9call_once17h3edde31899baf7faE, symObjAddr: 0x1050, symBinAddr: 0x100003EB8, symSize: 0x2C }
  - { offset: 0x4796, size: 0x8, addend: 0x0, symName: __ZN4core3ops8function6FnOnce9call_once17hb495bfc68b3fc639E, symObjAddr: 0x107C, symBinAddr: 0x100003EE4, symSize: 0x20 }
  - { offset: 0x47D6, size: 0x8, addend: 0x0, symName: __ZN4core3ops8function6FnOnce9call_once17hdc81771f935d7fc7E, symObjAddr: 0x109C, symBinAddr: 0x100003F04, symSize: 0x24 }
  - { offset: 0x4A6C, size: 0x8, addend: 0x0, symName: '__ZN49_$LT$F$u20$as$u20$core..str..pattern..Pattern$GT$13into_searcher17h41ce7058c94732cfE', symObjAddr: 0x854, symBinAddr: 0x1000036C0, symSize: 0x48 }
  - { offset: 0x4AB2, size: 0x8, addend: 0x0, symName: '__ZN49_$LT$F$u20$as$u20$core..str..pattern..Pattern$GT$13into_searcher17h469a04f77d24f156E', symObjAddr: 0x89C, symBinAddr: 0x100003708, symSize: 0x48 }
  - { offset: 0x4B85, size: 0x8, addend: 0x0, symName: '__ZN53_$LT$F$u20$as$u20$core..str..pattern..MultiCharEq$GT$7matches17h02360715fd44257fE', symObjAddr: 0x3638, symBinAddr: 0x100006418, symSize: 0x28 }
  - { offset: 0x4BCB, size: 0x8, addend: 0x0, symName: '__ZN53_$LT$F$u20$as$u20$core..str..pattern..MultiCharEq$GT$7matches17h348df76b627e4615E', symObjAddr: 0x3660, symBinAddr: 0x100006440, symSize: 0x28 }
  - { offset: 0x4C11, size: 0x8, addend: 0x0, symName: '__ZN53_$LT$F$u20$as$u20$core..str..pattern..MultiCharEq$GT$7matches17h9b1386c551ded994E', symObjAddr: 0x3688, symBinAddr: 0x100006468, symSize: 0x28 }
  - { offset: 0x4D06, size: 0x8, addend: 0x0, symName: '__ZN4core3str21_$LT$impl$u20$str$GT$11starts_with17hf042cd9b1f0929c2E', symObjAddr: 0x1D94, symBinAddr: 0x100004B74, symSize: 0x4C }
  - { offset: 0x4D80, size: 0x8, addend: 0x0, symName: '__ZN4core3str21_$LT$impl$u20$str$GT$12trim_matches17h42a0f003f53a006dE', symObjAddr: 0x1DE0, symBinAddr: 0x100004BC0, symSize: 0x128 }
  - { offset: 0x4F44, size: 0x8, addend: 0x0, symName: '__ZN4core3str21_$LT$impl$u20$str$GT$16split_at_checked17h1ed6b46fa91a5208E', symObjAddr: 0x1F08, symBinAddr: 0x100004CE8, symSize: 0x100 }
  - { offset: 0x4FEF, size: 0x8, addend: 0x0, symName: '__ZN4core3str21_$LT$impl$u20$str$GT$16split_whitespace17hac001cce1e8ba6fdE', symObjAddr: 0x2008, symBinAddr: 0x100004DE8, symSize: 0xCC }
  - { offset: 0x50D9, size: 0x8, addend: 0x0, symName: '__ZN4core3str21_$LT$impl$u20$str$GT$16trim_end_matches17h9c88e0122ed3726bE', symObjAddr: 0x20D4, symBinAddr: 0x100004EB4, symSize: 0xD4 }
  - { offset: 0x521A, size: 0x8, addend: 0x0, symName: '__ZN4core3str21_$LT$impl$u20$str$GT$4find17h70d74cdc78cb8716E', symObjAddr: 0x21A8, symBinAddr: 0x100004F88, symSize: 0xC8 }
  - { offset: 0x52A2, size: 0x8, addend: 0x0, symName: '__ZN4core3str21_$LT$impl$u20$str$GT$4trim17h225bf8ad8d0a5d2eE', symObjAddr: 0x2270, symBinAddr: 0x100005050, symSize: 0x28 }
  - { offset: 0x52D5, size: 0x8, addend: 0x0, symName: '__ZN4core3str21_$LT$impl$u20$str$GT$4trim28_$u7b$$u7b$closure$u7d$$u7d$17hff09346c77e3f488E', symObjAddr: 0x2298, symBinAddr: 0x100005078, symSize: 0x94 }
  - { offset: 0x5342, size: 0x8, addend: 0x0, symName: '__ZN4core3str21_$LT$impl$u20$str$GT$5chars17h22805752c62fc292E', symObjAddr: 0x232C, symBinAddr: 0x10000510C, symSize: 0x20 }
  - { offset: 0x53B0, size: 0x8, addend: 0x0, symName: '__ZN4core3str21_$LT$impl$u20$str$GT$5parse17h91317d977f5a92deE', symObjAddr: 0x234C, symBinAddr: 0x10000512C, symSize: 0x38 }
  - { offset: 0x53E7, size: 0x8, addend: 0x0, symName: '__ZN4core3str21_$LT$impl$u20$str$GT$5parse17ha0aab27ffe190387E', symObjAddr: 0x2384, symBinAddr: 0x100005164, symSize: 0x28 }
  - { offset: 0x541E, size: 0x8, addend: 0x0, symName: '__ZN4core3str21_$LT$impl$u20$str$GT$5parse17hb08085ee04c49fa0E', symObjAddr: 0x23AC, symBinAddr: 0x10000518C, symSize: 0x38 }
  - { offset: 0x5455, size: 0x8, addend: 0x0, symName: '__ZN4core3str21_$LT$impl$u20$str$GT$8split_at17hc9fe943e363738ccE', symObjAddr: 0x23E4, symBinAddr: 0x1000051C4, symSize: 0x84 }
  - { offset: 0x5492, size: 0x8, addend: 0x0, symName: '__ZN4core3str21_$LT$impl$u20$str$GT$8trim_end17hc9b730edc254f9edE', symObjAddr: 0x2468, symBinAddr: 0x100005248, symSize: 0x28 }
  - { offset: 0x54C5, size: 0x8, addend: 0x0, symName: '__ZN4core3str21_$LT$impl$u20$str$GT$8trim_end28_$u7b$$u7b$closure$u7d$$u7d$17hf0f35bc77b1cbaf1E', symObjAddr: 0x2490, symBinAddr: 0x100005270, symSize: 0x94 }
  - { offset: 0x56FF, size: 0x8, addend: 0x0, symName: '__ZN4core3str6traits112_$LT$impl$u20$core..slice..index..SliceIndex$LT$str$GT$$u20$for$u20$core..ops..range..RangeFrom$LT$usize$GT$$GT$3get17h9b4e77a6a3fd937fE', symObjAddr: 0x2524, symBinAddr: 0x100005304, symSize: 0x148 }
  - { offset: 0x586D, size: 0x8, addend: 0x0, symName: '__ZN4core3str6traits112_$LT$impl$u20$core..slice..index..SliceIndex$LT$str$GT$$u20$for$u20$core..ops..range..RangeFrom$LT$usize$GT$$GT$5index17h83be962e8d87c0e1E', symObjAddr: 0x266C, symBinAddr: 0x10000544C, symSize: 0x88 }
  - { offset: 0x5A24, size: 0x8, addend: 0x0, symName: '__ZN90_$LT$core..str..IsWhitespace$u20$as$u20$core..ops..function..Fn$LT$$LP$char$C$$RP$$GT$$GT$4call17h7f3421201adccf9aE', symObjAddr: 0x3F78, symBinAddr: 0x100006D58, symSize: 0x2C }
  - { offset: 0x5A7C, size: 0x8, addend: 0x0, symName: '__ZN93_$LT$core..str..IsWhitespace$u20$as$u20$core..ops..function..FnMut$LT$$LP$char$C$$RP$$GT$$GT$8call_mut17hb31c8f9c91f20befE', symObjAddr: 0x3FA4, symBinAddr: 0x100006D84, symSize: 0x30 }
  - { offset: 0x5AD4, size: 0x8, addend: 0x0, symName: '__ZN95_$LT$core..str..IsNotEmpty$u20$as$u20$core..ops..function..Fn$LT$$LP$$RF$$RF$str$C$$RP$$GT$$GT$4call17he2096cc89f5ab6fbE', symObjAddr: 0x4050, symBinAddr: 0x100006E30, symSize: 0x24 }
  - { offset: 0x5B25, size: 0x8, addend: 0x0, symName: '__ZN98_$LT$core..str..IsNotEmpty$u20$as$u20$core..ops..function..FnMut$LT$$LP$$RF$$RF$str$C$$RP$$GT$$GT$8call_mut17hfe630c8fdf62b2a5E', symObjAddr: 0x4074, symBinAddr: 0x100006E54, symSize: 0x30 }
  - { offset: 0x5F47, size: 0x8, addend: 0x0, symName: __ZN4core9ub_checks23maybe_is_nonoverlapping7runtime17h4b92e21328a1d402E, symObjAddr: 0x3560, symBinAddr: 0x100006340, symSize: 0xD8 }
  - { offset: 0x60FA, size: 0x8, addend: 0x0, symName: __ZN4core10intrinsics19copy_nonoverlapping18precondition_check17hd13f25a5f311ce49E, symObjAddr: 0x8E4, symBinAddr: 0x100003750, symSize: 0x2E4 }
  - { offset: 0x6408, size: 0x8, addend: 0x0, symName: __ZN4core9core_arch10arm_shared4neon13vget_lane_u6417h93763199a7cca609E, symObjAddr: 0x3548, symBinAddr: 0x100006328, symSize: 0x18 }
  - { offset: 0x6689, size: 0x8, addend: 0x0, symName: __ZN4core5slice6memchr6memchr17h4ae6e1e26a12abbeE, symObjAddr: 0x32F0, symBinAddr: 0x1000060D0, symSize: 0x114 }
  - { offset: 0x6757, size: 0x8, addend: 0x0, symName: '__ZN4core4char7methods22_$LT$impl$u20$char$GT$13is_whitespace17h413735e23de3d732E', symObjAddr: 0x29B4, symBinAddr: 0x100005794, symSize: 0x90 }
  - { offset: 0x679A, size: 0x8, addend: 0x0, symName: '__ZN4core4char7methods22_$LT$impl$u20$char$GT$14is_ascii_digit17h2d316aa7937dc068E', symObjAddr: 0x2A44, symBinAddr: 0x100005824, symSize: 0x54 }
  - { offset: 0x67E6, size: 0x8, addend: 0x0, symName: '__ZN4core4char7methods22_$LT$impl$u20$char$GT$18to_ascii_uppercase17h42fbd9834f5defccE', symObjAddr: 0x2A98, symBinAddr: 0x100005878, symSize: 0x80 }
  - { offset: 0x6848, size: 0x8, addend: 0x0, symName: '__ZN4core4char7methods22_$LT$impl$u20$char$GT$19is_ascii_alphabetic17h9b7f413e5ae6e4d4E', symObjAddr: 0x2B18, symBinAddr: 0x1000058F8, symSize: 0x8C }
  - { offset: 0x6876, size: 0x8, addend: 0x0, symName: '__ZN4core4char7methods22_$LT$impl$u20$char$GT$8to_digit17h1886c02e5e274f0eE', symObjAddr: 0x2BA4, symBinAddr: 0x100005984, symSize: 0x14C }
  - { offset: 0x69E7, size: 0x8, addend: 0x0, symName: __ZN4core4char7methods15encode_utf8_raw17h0eb59682d800caafE, symObjAddr: 0x278C, symBinAddr: 0x10000556C, symSize: 0x228 }
  - { offset: 0x6BF1, size: 0x8, addend: 0x0, symName: __ZN4core4char7convert18from_u32_unchecked18precondition_check17ha2358a9a9f785a0bE, symObjAddr: 0x26F4, symBinAddr: 0x1000054D4, symSize: 0x98 }
  - { offset: 0x6C87, size: 0x8, addend: 0x0, symName: __ZN4core5alloc6layout6Layout25from_size_align_unchecked18precondition_check17hee35851fa4f81694E, symObjAddr: 0x32A0, symBinAddr: 0x100006080, symSize: 0x50 }
  - { offset: 0x6D9C, size: 0x8, addend: 0x0, symName: '__ZN103_$LT$alloc..vec..into_iter..IntoIter$LT$T$C$A$GT$$u20$as$u20$core..iter..traits..iterator..Iterator$GT$9size_hint17h17bd481c2a6ca888E', symObjAddr: 0x0, symBinAddr: 0x1000030D0, symSize: 0x6C }
  - { offset: 0x6E07, size: 0x8, addend: 0x0, symName: '__ZN157_$LT$$LT$alloc..vec..into_iter..IntoIter$LT$T$C$A$GT$$u20$as$u20$core..ops..drop..Drop$GT$..drop..DropGuard$LT$T$C$A$GT$$u20$as$u20$core..ops..drop..Drop$GT$4drop17h129f513574478827E', symObjAddr: 0xEC, symBinAddr: 0x1000031BC, symSize: 0x7C }
  - { offset: 0x6F1F, size: 0x8, addend: 0x0, symName: '__ZN86_$LT$alloc..vec..into_iter..IntoIter$LT$T$C$A$GT$$u20$as$u20$core..ops..drop..Drop$GT$4drop17h079d133e378ebac5E', symObjAddr: 0x3E4C, symBinAddr: 0x100006C2C, symSize: 0x98 }
  - { offset: 0x7289, size: 0x8, addend: 0x0, symName: '__ZN63_$LT$alloc..alloc..Global$u20$as$u20$core..alloc..Allocator$GT$10deallocate17hbb48b96413000bdaE', symObjAddr: 0x3B68, symBinAddr: 0x100006948, symSize: 0x88 }
  - { offset: 0x76A3, size: 0x8, addend: 0x0, symName: '__ZN65_$LT$alloc..string..String$u20$as$u20$core..ops..deref..Deref$GT$5deref17h5dce1be548c19ecdE', symObjAddr: 0x3BF0, symBinAddr: 0x1000069D0, symSize: 0x24 }
  - { offset: 0x76D7, size: 0x8, addend: 0x0, symName: '__ZN60_$LT$alloc..string..String$u20$as$u20$core..fmt..Display$GT$3fmt17h85b94c21f6d31609E', symObjAddr: 0x3AC0, symBinAddr: 0x1000068A0, symSize: 0x80 }
  - { offset: 0x7842, size: 0x8, addend: 0x0, symName: '__ZN72_$LT$alloc..boxed..Box$LT$T$C$A$GT$$u20$as$u20$core..ops..drop..Drop$GT$4drop17h1dc6536629918eedE', symObjAddr: 0x3C14, symBinAddr: 0x1000069F4, symSize: 0xC4 }
  - { offset: 0x7979, size: 0x8, addend: 0x0, symName: '__ZN72_$LT$alloc..boxed..Box$LT$T$C$A$GT$$u20$as$u20$core..ops..drop..Drop$GT$4drop17h82c6aafa64349203E', symObjAddr: 0x3CD8, symBinAddr: 0x100006AB8, symSize: 0xB0 }
  - { offset: 0x8033, size: 0x8, addend: 0x0, symName: '__ZN79_$LT$hashbrown..raw..RawTable$LT$T$C$A$GT$$u20$as$u20$core..ops..drop..Drop$GT$4drop17hceca11f65d090026E', symObjAddr: 0x3D98, symBinAddr: 0x100006B78, symSize: 0x3C }
  - { offset: 0x806F, size: 0x8, addend: 0x0, symName: '__ZN79_$LT$hashbrown..raw..RawTable$LT$T$C$A$GT$$u20$as$u20$core..ops..drop..Drop$GT$4drop17hd904d012c63601d5E', symObjAddr: 0x3DD4, symBinAddr: 0x100006BB4, symSize: 0x3C }
  - { offset: 0x80AB, size: 0x8, addend: 0x0, symName: '__ZN79_$LT$hashbrown..raw..RawTable$LT$T$C$A$GT$$u20$as$u20$core..ops..drop..Drop$GT$4drop17he2538722c7666077E', symObjAddr: 0x3E10, symBinAddr: 0x100006BF0, symSize: 0x3C }
  - { offset: 0x870A, size: 0x8, addend: 0x0, symName: '__ZN3std11collections4hash3map20HashMap$LT$K$C$V$GT$3new17h9006a31170c37c34E', symObjAddr: 0x194, symBinAddr: 0x100003264, symSize: 0x7C }
  - { offset: 0x8865, size: 0x8, addend: 0x0, symName: '__ZN3std11collections4hash3map20HashMap$LT$K$C$V$GT$3new17heb1cbfb27e20904aE', symObjAddr: 0x210, symBinAddr: 0x1000032E0, symSize: 0x7C }
  - { offset: 0x8AA9, size: 0x8, addend: 0x0, symName: '__ZN3std3sys12thread_local6native4lazy20Storage$LT$T$C$D$GT$10initialize17hc65df6d70ab50100E', symObjAddr: 0x32C, symBinAddr: 0x100048D5C, symSize: 0x264 }
  - { offset: 0x8CFD, size: 0x8, addend: 0x0, symName: '__ZN3std3sys12thread_local6native4lazy20Storage$LT$T$C$D$GT$11get_or_init17ha36e61a0cb63b9b4E', symObjAddr: 0x590, symBinAddr: 0x1000033FC, symSize: 0xC4 }
  - { offset: 0x8EB5, size: 0x8, addend: 0x0, symName: __ZN3std4sync6poison4Flag4done17hb5f4015ec8b0dd98E, symObjAddr: 0x704, symBinAddr: 0x100003570, symSize: 0xA4 }
  - { offset: 0x907A, size: 0x8, addend: 0x0, symName: __ZN4core3fmt2rt11Placeholder3new17h4629d4cfd0f65113E, symObjAddr: 0xC48, symBinAddr: 0x100003AB0, symSize: 0x4C }
  - { offset: 0x90EF, size: 0x8, addend: 0x0, symName: __ZN4core3fmt2rt8Argument11new_display17h26d7e9350cecf7d2E, symObjAddr: 0xC94, symBinAddr: 0x100003AFC, symSize: 0x2C }
  - { offset: 0x9127, size: 0x8, addend: 0x0, symName: __ZN4core3fmt2rt8Argument11new_display17h2c330c464f79fc2dE, symObjAddr: 0xCC0, symBinAddr: 0x100003B28, symSize: 0x2C }
  - { offset: 0x915F, size: 0x8, addend: 0x0, symName: __ZN4core3fmt2rt8Argument11new_display17h76cbebc1b810a0ccE, symObjAddr: 0xCEC, symBinAddr: 0x100003B54, symSize: 0x2C }
  - { offset: 0x919E, size: 0x8, addend: 0x0, symName: __ZN4core3fmt2rt8Argument11new_display17h7ddd53920056241fE, symObjAddr: 0xD18, symBinAddr: 0x100003B80, symSize: 0x2C }
  - { offset: 0x91D6, size: 0x8, addend: 0x0, symName: __ZN4core3fmt2rt8Argument11new_display17hcf93eccac2f91ba3E, symObjAddr: 0xD44, symBinAddr: 0x100003BAC, symSize: 0x2C }
  - { offset: 0x921E, size: 0x8, addend: 0x0, symName: __ZN4core3fmt2rt8Argument3new17h063150ffa83a1217E, symObjAddr: 0xD70, symBinAddr: 0x100003BD8, symSize: 0x2C }
  - { offset: 0x9274, size: 0x8, addend: 0x0, symName: __ZN4core3fmt2rt8Argument3new17h284dee2351463d25E, symObjAddr: 0xD9C, symBinAddr: 0x100003C04, symSize: 0x2C }
  - { offset: 0x92CA, size: 0x8, addend: 0x0, symName: __ZN4core3fmt2rt8Argument3new17h34dbeee4250e6937E, symObjAddr: 0xDC8, symBinAddr: 0x100003C30, symSize: 0x2C }
  - { offset: 0x9320, size: 0x8, addend: 0x0, symName: __ZN4core3fmt2rt8Argument3new17h58b507c1f406b045E, symObjAddr: 0xDF4, symBinAddr: 0x100003C5C, symSize: 0x2C }
  - { offset: 0x9376, size: 0x8, addend: 0x0, symName: __ZN4core3fmt2rt8Argument3new17ha0628f65d94a107dE, symObjAddr: 0xE20, symBinAddr: 0x100003C88, symSize: 0x2C }
  - { offset: 0x93AF, size: 0x8, addend: 0x0, symName: __ZN4core3fmt2rt9UnsafeArg3new17he82d07770c6a9bd7E, symObjAddr: 0xE4C, symBinAddr: 0x100003CB4, symSize: 0x4 }
  - { offset: 0x93C2, size: 0x8, addend: 0x0, symName: __ZN4core3fmt9Arguments16new_v1_formatted17hfde08d5fd911b14fE, symObjAddr: 0xE50, symBinAddr: 0x100003CB8, symSize: 0x58 }
  - { offset: 0x9443, size: 0x8, addend: 0x0, symName: __ZN4core3fmt9Arguments6new_v117ha074de3e1ea84510E, symObjAddr: 0xEA8, symBinAddr: 0x100003D10, symSize: 0x54 }
  - { offset: 0x9475, size: 0x8, addend: 0x0, symName: __ZN4core3fmt9Arguments9new_const17hf67d70710d5f5eebE, symObjAddr: 0xEFC, symBinAddr: 0x100003D64, symSize: 0x48 }
  - { offset: 0x96C4, size: 0x8, addend: 0x0, symName: '__ZN4core4iter8adapters8peekable17Peekable$LT$I$GT$4peek17hdc2b9543a6359835E', symObjAddr: 0x2E24, symBinAddr: 0x100005C04, symSize: 0x70 }
  - { offset: 0x97DE, size: 0x8, addend: 0x0, symName: '__ZN4core6option15Option$LT$T$GT$18get_or_insert_with17h6e8242ea946359acE', symObjAddr: 0x3404, symBinAddr: 0x1000061E4, symSize: 0x108 }
  - { offset: 0x9879, size: 0x8, addend: 0x0, symName: '__ZN4core6option15Option$LT$T$GT$4take17hd0da0e2e645bd95cE', symObjAddr: 0x350C, symBinAddr: 0x1000062EC, symSize: 0x3C }
  - { offset: 0x992D, size: 0x8, addend: 0x0, symName: __ZN5alloc6string6String3new17h5e2fbf3f05199798E, symObjAddr: 0x36B0, symBinAddr: 0x100006490, symSize: 0x30 }
  - { offset: 0x9ADD, size: 0x8, addend: 0x0, symName: __ZN5alloc6string6String4push17haa0b910a1d7e76c7E, symObjAddr: 0x36E0, symBinAddr: 0x1000064C0, symSize: 0x184 }
  - { offset: 0x9DE7, size: 0x8, addend: 0x0, symName: __ZN5alloc6string6String5clear17h452f7492bcd35c3bE, symObjAddr: 0x3864, symBinAddr: 0x100006644, symSize: 0x24 }
  - { offset: 0x9EC6, size: 0x8, addend: 0x0, symName: __ZN5alloc6string6String6as_str17h496e7e1bce71dd06E, symObjAddr: 0x3888, symBinAddr: 0x100006668, symSize: 0x70 }
  - { offset: 0xA077, size: 0x8, addend: 0x0, symName: __ZN5alloc6string6String6insert17hb11dd715f3ebb279E, symObjAddr: 0x38F8, symBinAddr: 0x1000066D8, symSize: 0x1A8 }
  - { offset: 0xA30A, size: 0x8, addend: 0x0, symName: __ZN5alloc6string6String8is_empty17hb5cb128c0275af7dE, symObjAddr: 0x3AA0, symBinAddr: 0x100006880, symSize: 0x20 }
  - { offset: 0xA69A, size: 0x8, addend: 0x0, symName: __ZN9hashbrown3raw11TableLayout20calculate_layout_for17h3774178327538dc9E, symObjAddr: 0x40A4, symBinAddr: 0x100006E84, symSize: 0x210 }
  - { offset: 0xAA9C, size: 0x8, addend: 0x0, symName: __ZN9hashbrown3raw13RawTableInner13drop_elements17h0ce144f6371d5e80E, symObjAddr: 0x42B4, symBinAddr: 0x100007094, symSize: 0x174 }
  - { offset: 0xAD84, size: 0x8, addend: 0x0, symName: __ZN9hashbrown3raw13RawTableInner13drop_elements17h6593c7603b64098dE, symObjAddr: 0x4428, symBinAddr: 0x100007208, symSize: 0x28 }
  - { offset: 0xAF6A, size: 0x8, addend: 0x0, symName: __ZN9hashbrown3raw13RawTableInner13drop_elements17hcaa092de461e2663E, symObjAddr: 0x4450, symBinAddr: 0x100007230, symSize: 0x28 }
  - { offset: 0xB1C4, size: 0x8, addend: 0x0, symName: __ZN9hashbrown3raw13RawTableInner16drop_inner_table17h628f0d74cf84f4d0E, symObjAddr: 0x4478, symBinAddr: 0x100007258, symSize: 0xBC }
  - { offset: 0xB468, size: 0x8, addend: 0x0, symName: __ZN9hashbrown3raw13RawTableInner16drop_inner_table17h984a107a87dc5d2fE, symObjAddr: 0x4534, symBinAddr: 0x100007314, symSize: 0xBC }
  - { offset: 0xB70C, size: 0x8, addend: 0x0, symName: __ZN9hashbrown3raw13RawTableInner16drop_inner_table17hb9d922069987d0b1E, symObjAddr: 0x45F0, symBinAddr: 0x1000073D0, symSize: 0xBC }
  - { offset: 0xB8FF, size: 0x8, addend: 0x0, symName: '__ZN9hashbrown3raw21RawIterRange$LT$T$GT$3new17h4a37db15f3b6e2b2E', symObjAddr: 0x46AC, symBinAddr: 0x10000748C, symSize: 0xC0 }
  - { offset: 0xBCA5, size: 0x8, addend: 0x0, symName: '__ZN9hashbrown3raw21RawIterRange$LT$T$GT$9next_impl17h9893262ba85d3297E', symObjAddr: 0x476C, symBinAddr: 0x10000754C, symSize: 0x1E4 }
  - { offset: 0xBFDF, size: 0x8, addend: 0x0, symName: __ZN4main4main17hf13edf46277a999dE, symObjAddr: 0x4950, symBinAddr: 0x100007730, symSize: 0x270 }
  - { offset: 0xC5FC, size: 0x8, addend: 0x0, symName: '__ZN102_$LT$core..str..iter..CharIndices$u20$as$u20$core..iter..traits..double_ended..DoubleEndedIterator$GT$9next_back17h51b78b0de4c70f1eE', symObjAddr: 0x0, symBinAddr: 0x1000079CC, symSize: 0x144 }
  - { offset: 0xC68C, size: 0x8, addend: 0x0, symName: '__ZN70_$LT$core..num..error..TryFromIntError$u20$as$u20$core..fmt..Debug$GT$3fmt17hece34176e27de86cE', symObjAddr: 0x2918, symBinAddr: 0x10000A2E4, symSize: 0x54 }
  - { offset: 0xCA49, size: 0x8, addend: 0x0, symName: '__ZN4core3ptr8non_null16NonNull$LT$T$GT$13new_unchecked18precondition_check17h84956a1cd8c3f07bE', symObjAddr: 0x108C, symBinAddr: 0x100008A58, symSize: 0x38 }
  - { offset: 0xD5C1, size: 0x8, addend: 0x0, symName: __ZN4core3cmp3Ord3min17hecff027f5e323e04E, symObjAddr: 0xEE0, symBinAddr: 0x1000088AC, symSize: 0x24 }
  - { offset: 0xD608, size: 0x8, addend: 0x0, symName: __ZN4core3cmp6max_by17hf0c8001c58b09e71E, symObjAddr: 0xF04, symBinAddr: 0x1000088D0, symSize: 0xC0 }
  - { offset: 0xD666, size: 0x8, addend: 0x0, symName: __ZN4core3cmp6min_by17hdfb99084258600d6E, symObjAddr: 0xFC4, symBinAddr: 0x100008990, symSize: 0xC8 }
  - { offset: 0xD8C0, size: 0x8, addend: 0x0, symName: '__ZN102_$LT$core..str..iter..CharIndices$u20$as$u20$core..iter..traits..double_ended..DoubleEndedIterator$GT$9next_back17h51b78b0de4c70f1eE', symObjAddr: 0x0, symBinAddr: 0x1000079CC, symSize: 0x144 }
  - { offset: 0xDB06, size: 0x8, addend: 0x0, symName: '__ZN81_$LT$core..str..iter..Chars$u20$as$u20$core..iter..traits..iterator..Iterator$GT$4next17h9ee9ac39f3803528E', symObjAddr: 0x2D58, symBinAddr: 0x10000A724, symSize: 0x70 }
  - { offset: 0xDBBF, size: 0x8, addend: 0x0, symName: '__ZN87_$LT$core..str..iter..CharIndices$u20$as$u20$core..iter..traits..iterator..Iterator$GT$4next17h0853f2f00edfca2cE', symObjAddr: 0x314C, symBinAddr: 0x10000AB18, symSize: 0x130 }
  - { offset: 0xDD47, size: 0x8, addend: 0x0, symName: '__ZN90_$LT$core..str..iter..Split$LT$P$GT$$u20$as$u20$core..iter..traits..iterator..Iterator$GT$4next17h597115e3184edc42E', symObjAddr: 0x32E4, symBinAddr: 0x10000ACB0, symSize: 0x24 }
  - { offset: 0xDDA2, size: 0x8, addend: 0x0, symName: '__ZN91_$LT$core..str..iter..SplitWhitespace$u20$as$u20$core..iter..traits..iterator..Iterator$GT$4next17h8d4037a26dec44bcE', symObjAddr: 0x33CC, symBinAddr: 0x10000AD98, symSize: 0x30 }
  - { offset: 0xDDEE, size: 0x8, addend: 0x0, symName: '__ZN91_$LT$core..str..iter..SplitWhitespace$u20$as$u20$core..iter..traits..iterator..Iterator$GT$9size_hint17h59bc2951052a5bdbE', symObjAddr: 0x33FC, symBinAddr: 0x10000ADC8, symSize: 0x34 }
  - { offset: 0xDE52, size: 0x8, addend: 0x0, symName: '__ZN104_$LT$core..str..pattern..MultiCharEqSearcher$LT$C$GT$$u20$as$u20$core..str..pattern..ReverseSearcher$GT$9next_back17h36bb0e4ba6086e02E', symObjAddr: 0x144, symBinAddr: 0x100007B10, symSize: 0x14C }
  - { offset: 0xDF72, size: 0x8, addend: 0x0, symName: '__ZN104_$LT$core..str..pattern..MultiCharEqSearcher$LT$C$GT$$u20$as$u20$core..str..pattern..ReverseSearcher$GT$9next_back17he2ac5edde28879cdE', symObjAddr: 0x290, symBinAddr: 0x100007C5C, symSize: 0x14C }
  - { offset: 0xE098, size: 0x8, addend: 0x0, symName: '__ZN106_$LT$core..str..pattern..CharPredicateSearcher$LT$F$GT$$u20$as$u20$core..str..pattern..ReverseSearcher$GT$16next_reject_back17h12cb8372bbd33ac9E', symObjAddr: 0x4E4, symBinAddr: 0x100007EB0, symSize: 0x24 }
  - { offset: 0xE0CF, size: 0x8, addend: 0x0, symName: '__ZN106_$LT$core..str..pattern..CharPredicateSearcher$LT$F$GT$$u20$as$u20$core..str..pattern..ReverseSearcher$GT$16next_reject_back17h79cdbfd3e75d8034E', symObjAddr: 0x508, symBinAddr: 0x100007ED4, symSize: 0x24 }
  - { offset: 0xE160, size: 0x8, addend: 0x0, symName: __ZN4core3str7pattern15ReverseSearcher16next_reject_back17h384107f3c168dd06E, symObjAddr: 0x194C, symBinAddr: 0x100009318, symSize: 0x90 }
  - { offset: 0xE1C5, size: 0x8, addend: 0x0, symName: __ZN4core3str7pattern15ReverseSearcher16next_reject_back17h7bd1a2e1bc5df736E, symObjAddr: 0x19DC, symBinAddr: 0x1000093A8, symSize: 0x90 }
  - { offset: 0xE230, size: 0x8, addend: 0x0, symName: __ZN4core3str7pattern8Searcher10next_match17h1c3a29e95c201594E, symObjAddr: 0x1A6C, symBinAddr: 0x100009438, symSize: 0x90 }
  - { offset: 0xE291, size: 0x8, addend: 0x0, symName: __ZN4core3str7pattern8Searcher11next_reject17h5168f60aa7e544e6E, symObjAddr: 0x1AFC, symBinAddr: 0x1000094C8, symSize: 0x90 }
  - { offset: 0xE2FC, size: 0x8, addend: 0x0, symName: '__ZN52_$LT$char$u20$as$u20$core..str..pattern..Pattern$GT$13into_searcher17h23538ea67a2d0cf5E', symObjAddr: 0x2554, symBinAddr: 0x100009F20, symSize: 0x114 }
  - { offset: 0xE418, size: 0x8, addend: 0x0, symName: '__ZN55_$LT$$RF$str$u20$as$u20$core..str..pattern..Pattern$GT$12is_prefix_of17h3a76610cb5f2a464E', symObjAddr: 0x2678, symBinAddr: 0x10000A044, symSize: 0x4C }
  - { offset: 0xE4C2, size: 0x8, addend: 0x0, symName: '__ZN81_$LT$core..str..pattern..CharSearcher$u20$as$u20$core..str..pattern..Searcher$GT$10next_match17h16ed68590fcf3aceE', symObjAddr: 0x2DC8, symBinAddr: 0x10000A794, symSize: 0x384 }
  - { offset: 0xE967, size: 0x8, addend: 0x0, symName: '__ZN95_$LT$core..str..pattern..MultiCharEqPattern$LT$C$GT$$u20$as$u20$core..str..pattern..Pattern$GT$13into_searcher17h2369a11ad848f9baE', symObjAddr: 0x3430, symBinAddr: 0x10000ADFC, symSize: 0x90 }
  - { offset: 0xE9C3, size: 0x8, addend: 0x0, symName: '__ZN95_$LT$core..str..pattern..MultiCharEqPattern$LT$C$GT$$u20$as$u20$core..str..pattern..Pattern$GT$13into_searcher17h81ddd0721b0c78bbE', symObjAddr: 0x34C0, symBinAddr: 0x10000AE8C, symSize: 0x90 }
  - { offset: 0xEA1F, size: 0x8, addend: 0x0, symName: '__ZN95_$LT$core..str..pattern..MultiCharEqPattern$LT$C$GT$$u20$as$u20$core..str..pattern..Pattern$GT$13into_searcher17h9032815956464293E', symObjAddr: 0x3550, symBinAddr: 0x10000AF1C, symSize: 0x90 }
  - { offset: 0xEA81, size: 0x8, addend: 0x0, symName: '__ZN97_$LT$core..str..pattern..MultiCharEqSearcher$LT$C$GT$$u20$as$u20$core..str..pattern..Searcher$GT$4next17h6c6183cc1dc054e0E', symObjAddr: 0x35E0, symBinAddr: 0x10000AFAC, symSize: 0x14C }
  - { offset: 0xEBA1, size: 0x8, addend: 0x0, symName: '__ZN97_$LT$core..str..pattern..MultiCharEqSearcher$LT$C$GT$$u20$as$u20$core..str..pattern..Searcher$GT$4next17h6cb6f49aafc6c880E', symObjAddr: 0x372C, symBinAddr: 0x10000B0F8, symSize: 0x14C }
  - { offset: 0xECE2, size: 0x8, addend: 0x0, symName: '__ZN99_$LT$core..str..pattern..CharPredicateSearcher$LT$F$GT$$u20$as$u20$core..str..pattern..Searcher$GT$10next_match17h6956cca17e784839E', symObjAddr: 0x3878, symBinAddr: 0x10000B244, symSize: 0x24 }
  - { offset: 0xED19, size: 0x8, addend: 0x0, symName: '__ZN99_$LT$core..str..pattern..CharPredicateSearcher$LT$F$GT$$u20$as$u20$core..str..pattern..Searcher$GT$11next_reject17h25eef42f2b272d1aE', symObjAddr: 0x389C, symBinAddr: 0x10000B268, symSize: 0x24 }
  - { offset: 0xED50, size: 0x8, addend: 0x0, symName: '__ZN99_$LT$core..str..pattern..CharPredicateSearcher$LT$F$GT$$u20$as$u20$core..str..pattern..Searcher$GT$8haystack17h5d46bd59ffcbe9b1E', symObjAddr: 0x38C0, symBinAddr: 0x10000B28C, symSize: 0x20 }
  - { offset: 0xEF7D, size: 0x8, addend: 0x0, symName: __ZN4core3str11validations15next_code_point17h58580a00def84acaE, symObjAddr: 0x11AC, symBinAddr: 0x100008B78, symSize: 0x20C }
  - { offset: 0xF22E, size: 0x8, addend: 0x0, symName: __ZN4core3str11validations23next_code_point_reverse17h195119899fc4b35aE, symObjAddr: 0x13B8, symBinAddr: 0x100008D84, symSize: 0x234 }
  - { offset: 0xF573, size: 0x8, addend: 0x0, symName: '__ZN4core3str6traits108_$LT$impl$u20$core..slice..index..SliceIndex$LT$str$GT$$u20$for$u20$core..ops..range..Range$LT$usize$GT$$GT$13get_unchecked18precondition_check17hcd3e8229294cbccdE', symObjAddr: 0x1844, symBinAddr: 0x100009210, symSize: 0x60 }
  - { offset: 0xF5BE, size: 0x8, addend: 0x0, symName: '__ZN4core3str6traits54_$LT$impl$u20$core..cmp..PartialEq$u20$for$u20$str$GT$2eq17h85be7a7292671017E', symObjAddr: 0x18A4, symBinAddr: 0x100009270, symSize: 0x64 }
  - { offset: 0xF683, size: 0x8, addend: 0x0, symName: '__ZN4core3str6traits66_$LT$impl$u20$core..ops..index..Index$LT$I$GT$$u20$for$u20$str$GT$5index17h003cf8d11a9f6408E', symObjAddr: 0x1908, symBinAddr: 0x1000092D4, symSize: 0x44 }
  - { offset: 0x10393, size: 0x8, addend: 0x0, symName: '__ZN106_$LT$core..slice..iter..Iter$LT$T$GT$$u20$as$u20$core..iter..traits..double_ended..DoubleEndedIterator$GT$9next_back17he0ed6e60954931d7E', symObjAddr: 0x3DC, symBinAddr: 0x100007DA8, symSize: 0x108 }
  - { offset: 0x10526, size: 0x8, addend: 0x0, symName: '__ZN91_$LT$core..slice..iter..Iter$LT$T$GT$$u20$as$u20$core..iter..traits..iterator..Iterator$GT$4next17h8efed336c3eda970E', symObjAddr: 0x3308, symBinAddr: 0x10000ACD4, symSize: 0xC4 }
  - { offset: 0x106FF, size: 0x8, addend: 0x0, symName: __ZN4core5slice3raw14from_raw_parts18precondition_check17h965b1b10ffd5138cE, symObjAddr: 0x1F20, symBinAddr: 0x1000098EC, symSize: 0x168 }
  - { offset: 0x10845, size: 0x8, addend: 0x0, symName: __ZN4core5slice3raw18from_raw_parts_mut18precondition_check17hb7d683416fabb90dE, symObjAddr: 0x2088, symBinAddr: 0x100009A54, symSize: 0x168 }
  - { offset: 0x10996, size: 0x8, addend: 0x0, symName: '__ZN75_$LT$usize$u20$as$u20$core..slice..index..SliceIndex$LT$$u5b$T$u5d$$GT$$GT$13get_unchecked18precondition_check17h668a708bca794616E', symObjAddr: 0x296C, symBinAddr: 0x10000A338, symSize: 0x40 }
  - { offset: 0x109CD, size: 0x8, addend: 0x0, symName: '__ZN75_$LT$usize$u20$as$u20$core..slice..index..SliceIndex$LT$$u5b$T$u5d$$GT$$GT$5index17h21d50c733721ab2cE', symObjAddr: 0x29AC, symBinAddr: 0x10000A378, symSize: 0x64 }
  - { offset: 0x10A13, size: 0x8, addend: 0x0, symName: '__ZN75_$LT$usize$u20$as$u20$core..slice..index..SliceIndex$LT$$u5b$T$u5d$$GT$$GT$5index17h393eafd8277f7751E', symObjAddr: 0x2A10, symBinAddr: 0x10000A3DC, symSize: 0x64 }
  - { offset: 0x10A59, size: 0x8, addend: 0x0, symName: '__ZN75_$LT$usize$u20$as$u20$core..slice..index..SliceIndex$LT$$u5b$T$u5d$$GT$$GT$5index17h79ecdfba29333e5eE', symObjAddr: 0x2A74, symBinAddr: 0x10000A440, symSize: 0x5C }
  - { offset: 0x10A9F, size: 0x8, addend: 0x0, symName: '__ZN75_$LT$usize$u20$as$u20$core..slice..index..SliceIndex$LT$$u5b$T$u5d$$GT$$GT$5index17h93212eb63ed07748E', symObjAddr: 0x2AD0, symBinAddr: 0x10000A49C, symSize: 0x5C }
  - { offset: 0x10AE5, size: 0x8, addend: 0x0, symName: '__ZN75_$LT$usize$u20$as$u20$core..slice..index..SliceIndex$LT$$u5b$T$u5d$$GT$$GT$9index_mut17h7418937807942287E', symObjAddr: 0x2B2C, symBinAddr: 0x10000A4F8, symSize: 0x5C }
  - { offset: 0x10B2B, size: 0x8, addend: 0x0, symName: '__ZN75_$LT$usize$u20$as$u20$core..slice..index..SliceIndex$LT$$u5b$T$u5d$$GT$$GT$9index_mut17ha624dcc5fee36205E', symObjAddr: 0x2B88, symBinAddr: 0x10000A554, symSize: 0x64 }
  - { offset: 0x10EA7, size: 0x8, addend: 0x0, symName: __ZN4core4hint16assert_unchecked18precondition_check17hf9a35bb9da925f5eE, symObjAddr: 0x1B8C, symBinAddr: 0x100009558, symSize: 0x38 }
  - { offset: 0x10ED5, size: 0x8, addend: 0x0, symName: __ZN4core4hint21unreachable_unchecked18precondition_check17hf838aedde55088d2E, symObjAddr: 0x1BC4, symBinAddr: 0x100009590, symSize: 0x1C }
  - { offset: 0x11973, size: 0x8, addend: 0x0, symName: '__ZN49_$LT$usize$u20$as$u20$core..iter..range..Step$GT$17forward_unchecked17hb928a5c05ea0de9aE', symObjAddr: 0xE98, symBinAddr: 0x100008864, symSize: 0x48 }
  - { offset: 0x119E3, size: 0x8, addend: 0x0, symName: __ZN4core4iter6traits8iterator8Iterator4find17hec8da758069d4265E, symObjAddr: 0x1BE0, symBinAddr: 0x1000095AC, symSize: 0x90 }
  - { offset: 0x11A68, size: 0x8, addend: 0x0, symName: '__ZN4core4iter6traits8iterator8Iterator4find5check28_$u7b$$u7b$closure$u7d$$u7d$17h5d7a222b9b2c79ddE', symObjAddr: 0x1C70, symBinAddr: 0x10000963C, symSize: 0x84 }
  - { offset: 0x11AD9, size: 0x8, addend: 0x0, symName: __ZN4core4iter6traits8iterator8Iterator7collect17h33cc4ae1a86305b1E, symObjAddr: 0x1CF4, symBinAddr: 0x1000096C0, symSize: 0x1C }
  - { offset: 0x11B1A, size: 0x8, addend: 0x0, symName: __ZN4core4iter6traits8iterator8Iterator8peekable17he501b496e8dc8d1cE, symObjAddr: 0x1D10, symBinAddr: 0x1000096DC, symSize: 0x3C }
  - { offset: 0x11B66, size: 0x8, addend: 0x0, symName: __ZN4core4iter6traits8iterator8Iterator8try_fold17h454bf7bc58c4f196E, symObjAddr: 0x1D4C, symBinAddr: 0x100009718, symSize: 0x198 }
  - { offset: 0x11C2F, size: 0x8, addend: 0x0, symName: '__ZN63_$LT$I$u20$as$u20$core..iter..traits..collect..IntoIterator$GT$9into_iter17h5aee66e9282eefb7E', symObjAddr: 0x28E8, symBinAddr: 0x10000A2B4, symSize: 0x30 }
  - { offset: 0x11F83, size: 0x8, addend: 0x0, symName: __ZN4core7unicode12unicode_data11white_space6lookup17hba639589860c1dddE, symObjAddr: 0x235C, symBinAddr: 0x100009D28, symSize: 0x14C }
  - { offset: 0x11FC8, size: 0x8, addend: 0x0, symName: __ZN4core9core_arch10arm_shared4neon9generated18vreinterpret_s8_u817h7fb3a19b508dd36fE, symObjAddr: 0x24A8, symBinAddr: 0x100009E74, symSize: 0xC }
  - { offset: 0x11FF6, size: 0x8, addend: 0x0, symName: __ZN4core9core_arch10arm_shared4neon9generated19vreinterpret_u64_u817h3559d1e771b726f9E, symObjAddr: 0x24B4, symBinAddr: 0x100009E80, symSize: 0xC }
  - { offset: 0x12070, size: 0x8, addend: 0x0, symName: __ZN4core9core_arch7aarch644neon7vld1_u817h77dde7d7e2b7ececE, symObjAddr: 0x24C0, symBinAddr: 0x100009E8C, symSize: 0x2C }
  - { offset: 0x120A3, size: 0x8, addend: 0x0, symName: __ZN4core9core_arch7aarch644neon9generated8vcgez_s817haba9552672ab61f0E, symObjAddr: 0x24EC, symBinAddr: 0x100009EB8, symSize: 0x68 }
  - { offset: 0x1238E, size: 0x8, addend: 0x0, symName: '__ZN78_$LT$std..io..error..repr_bitpacked..Repr$u20$as$u20$core..ops..drop..Drop$GT$4drop28_$u7b$$u7b$closure$u7d$$u7d$17hb4f53085c194583aE', symObjAddr: 0x2D24, symBinAddr: 0x10000A6F0, symSize: 0x34 }
  - { offset: 0x12443, size: 0x8, addend: 0x0, symName: '__ZN78_$LT$std..io..error..repr_bitpacked..Repr$u20$as$u20$core..ops..drop..Drop$GT$4drop17hc0e8be6d84babffbE', symObjAddr: 0x2CEC, symBinAddr: 0x10000A6B8, symSize: 0x38 }
  - { offset: 0x1246C, size: 0x8, addend: 0x0, symName: __ZN3std2io5error14repr_bitpacked11decode_repr17h5b99e0751d1752d6E, symObjAddr: 0x52C, symBinAddr: 0x100007EF8, symSize: 0x230 }
  - { offset: 0x1270E, size: 0x8, addend: 0x0, symName: __ZN3std2io5error14repr_bitpacked14kind_from_prim17h7037e2ce55cded66E, symObjAddr: 0x75C, symBinAddr: 0x100008128, symSize: 0x608 }
  - { offset: 0x133DF, size: 0x8, addend: 0x0, symName: '__ZN54_$LT$$LP$$RP$$u20$as$u20$std..process..Termination$GT$6report17h105de85a233044d0E', symObjAddr: 0x2668, symBinAddr: 0x10000A034, symSize: 0x10 }
  - { offset: 0x13434, size: 0x8, addend: 0x0, symName: '__ZN87_$LT$std..sync..poison..mutex..MutexGuard$LT$T$GT$$u20$as$u20$core..ops..drop..Drop$GT$4drop17hf191c90dbf2815f4E', symObjAddr: 0x327C, symBinAddr: 0x10000AC48, symSize: 0x68 }
  - { offset: 0x13AA2, size: 0x8, addend: 0x0, symName: '__ZN3std6thread5local17LocalKey$LT$T$GT$4with17h4c1ddddd2dbfc52bE', symObjAddr: 0xD64, symBinAddr: 0x100008730, symSize: 0x4C }
  - { offset: 0x13B3C, size: 0x8, addend: 0x0, symName: '__ZN3std6thread5local17LocalKey$LT$T$GT$8try_with17habf1a7a241fbf642E', symObjAddr: 0xDB0, symBinAddr: 0x10000877C, symSize: 0xE8 }
  - { offset: 0x13F3A, size: 0x8, addend: 0x0, symName: '__ZN77_$LT$alloc..raw_vec..RawVec$LT$T$C$A$GT$$u20$as$u20$core..ops..drop..Drop$GT$4drop17h35c65404eb1d5632E', symObjAddr: 0x2BEC, symBinAddr: 0x10000A5B8, symSize: 0x34 }
  - { offset: 0x13F76, size: 0x8, addend: 0x0, symName: '__ZN77_$LT$alloc..raw_vec..RawVec$LT$T$C$A$GT$$u20$as$u20$core..ops..drop..Drop$GT$4drop17h63673648b10993c4E', symObjAddr: 0x2C20, symBinAddr: 0x10000A5EC, symSize: 0x34 }
  - { offset: 0x13FB2, size: 0x8, addend: 0x0, symName: '__ZN77_$LT$alloc..raw_vec..RawVec$LT$T$C$A$GT$$u20$as$u20$core..ops..drop..Drop$GT$4drop17h9e886439d5999428E', symObjAddr: 0x2C54, symBinAddr: 0x10000A620, symSize: 0x34 }
  - { offset: 0x13FEE, size: 0x8, addend: 0x0, symName: '__ZN77_$LT$alloc..raw_vec..RawVec$LT$T$C$A$GT$$u20$as$u20$core..ops..drop..Drop$GT$4drop17ha160f905b97e9f01E', symObjAddr: 0x2C88, symBinAddr: 0x10000A654, symSize: 0x30 }
  - { offset: 0x1402A, size: 0x8, addend: 0x0, symName: '__ZN77_$LT$alloc..raw_vec..RawVec$LT$T$C$A$GT$$u20$as$u20$core..ops..drop..Drop$GT$4drop17hf1de2ff6cfcb0fb4E', symObjAddr: 0x2CB8, symBinAddr: 0x10000A684, symSize: 0x34 }
  - { offset: 0x1423D, size: 0x8, addend: 0x0, symName: '__ZN4core3ptr8non_null16NonNull$LT$T$GT$7sub_ptr17h1113369cc40d479dE', symObjAddr: 0x10C4, symBinAddr: 0x100008A90, symSize: 0x74 }
  - { offset: 0x14329, size: 0x8, addend: 0x0, symName: '__ZN4core3ptr8non_null16NonNull$LT$T$GT$7sub_ptr17h28f4566c0fd901f1E', symObjAddr: 0x1138, symBinAddr: 0x100008B04, symSize: 0x74 }
  - { offset: 0x144D4, size: 0x8, addend: 0x0, symName: '__ZN4core3str4iter22SplitInternal$LT$P$GT$4next17h27bfe2d9870d6b01E', symObjAddr: 0x15EC, symBinAddr: 0x100008FB8, symSize: 0x138 }
  - { offset: 0x14610, size: 0x8, addend: 0x0, symName: '__ZN4core3str4iter22SplitInternal$LT$P$GT$7get_end17hca6f4152e0eea8e1E', symObjAddr: 0x1724, symBinAddr: 0x1000090F0, symSize: 0x120 }
  - { offset: 0x1478F, size: 0x8, addend: 0x0, symName: __ZN4core4time8Duration11as_secs_f6417h4a3e5b6763a04895E, symObjAddr: 0x1EE4, symBinAddr: 0x1000098B0, symSize: 0x3C }
  - { offset: 0x148DB, size: 0x8, addend: 0x0, symName: '__ZN4core6result19Result$LT$T$C$E$GT$6expect17h17b4bf84203c082bE', symObjAddr: 0x21F0, symBinAddr: 0x100009BBC, symSize: 0x84 }
  - { offset: 0x1493C, size: 0x8, addend: 0x0, symName: '__ZN4core6result19Result$LT$T$C$E$GT$6expect17h752ef26321a4d787E', symObjAddr: 0x2274, symBinAddr: 0x100009C40, symSize: 0x8C }
  - { offset: 0x1499E, size: 0x8, addend: 0x0, symName: '__ZN4core6result19Result$LT$T$C$E$GT$9unwrap_or17h632c744814a4dd8fE', symObjAddr: 0x2300, symBinAddr: 0x100009CCC, symSize: 0x5C }
  - { offset: 0x14B3A, size: 0x8, addend: 0x0, symName: __ZN4main11spreadsheet15parse_cell_name17h5cdb09fd024eda0eE, symObjAddr: 0x3950, symBinAddr: 0x10000B31C, symSize: 0x35C }
  - { offset: 0x14CB7, size: 0x8, addend: 0x0, symName: __ZN4main8commands16evaluate_formula17h0950cd2c41f5f93cE, symObjAddr: 0x46B0, symBinAddr: 0x10000C07C, symSize: 0x6C }
  - { offset: 0x14D0D, size: 0x8, addend: 0x0, symName: __ZN4main8commands15handle_commands17hed63fa714535aa41E, symObjAddr: 0x471C, symBinAddr: 0x10000C0E8, symSize: 0xCC4 }
  - { offset: 0x14FF4, size: 0x8, addend: 0x0, symName: '__ZN5alloc7raw_vec19RawVec$LT$T$C$A$GT$8grow_one17h0ea3b42c6f922584E', symObjAddr: 0x26C4, symBinAddr: 0x10000A090, symSize: 0x90 }
  - { offset: 0x150A2, size: 0x8, addend: 0x0, symName: '__ZN5alloc7raw_vec19RawVec$LT$T$C$A$GT$8grow_one17h428846587c2668a8E', symObjAddr: 0x2754, symBinAddr: 0x10000A120, symSize: 0x8C }
  - { offset: 0x151A0, size: 0x8, addend: 0x0, symName: '__ZN5alloc7raw_vec20RawVecInner$LT$A$GT$16with_capacity_in17h9f6b40650078cbabE', symObjAddr: 0x27E0, symBinAddr: 0x10000A1AC, symSize: 0x108 }
  - { offset: 0x15828, size: 0x8, addend: 0x0, symName: __ZN9hashbrown7control5group4neon5Group10match_full17hd68dc417167750a6E, symObjAddr: 0x38E0, symBinAddr: 0x10000B2AC, symSize: 0x68 }
  - { offset: 0x15860, size: 0x8, addend: 0x0, symName: __ZN4main11spreadsheet4Cell3new17h6ae5d888d6ebb1d1E, symObjAddr: 0x3948, symBinAddr: 0x10000B314, symSize: 0x8 }
  - { offset: 0x1591B, size: 0x8, addend: 0x0, symName: __ZN4main11spreadsheet11Spreadsheet3new17h32495e6eeef2c179E, symObjAddr: 0x3CAC, symBinAddr: 0x10000B678, symSize: 0x320 }
  - { offset: 0x159B0, size: 0x8, addend: 0x0, symName: __ZN4main11spreadsheet11Spreadsheet14set_cell_value17h3665d1c5b8df42cdE, symObjAddr: 0x3FCC, symBinAddr: 0x10000B998, symSize: 0x94 }
  - { offset: 0x15A09, size: 0x8, addend: 0x0, symName: __ZN4main11spreadsheet11Spreadsheet7display17h9cc930286aa2eacbE, symObjAddr: 0x4060, symBinAddr: 0x10000BA2C, symSize: 0x4B8 }
  - { offset: 0x15AF8, size: 0x8, addend: 0x0, symName: __ZN4main11spreadsheet11Spreadsheet13col_to_letter17he10c7ff65c9fc4b2E, symObjAddr: 0x4518, symBinAddr: 0x10000BEE4, symSize: 0x198 }
  - { offset: 0x15E5D, size: 0x8, addend: 0x0, symName: '__ZN111_$LT$alloc..vec..Vec$LT$T$GT$$u20$as$u20$alloc..vec..spec_from_iter_nested..SpecFromIterNested$LT$T$C$I$GT$$GT$9from_iter17h1786e289448c6ae4E', symObjAddr: 0x0, symBinAddr: 0x10000CDAC, symSize: 0x22C }
  - { offset: 0x15F43, size: 0x8, addend: 0x0, symName: '__ZN4core3num23_$LT$impl$u20$usize$GT$13unchecked_add18precondition_check17h1ec66695f22c0e79E', symObjAddr: 0x181C, symBinAddr: 0x10000E5C8, symSize: 0x44 }
  - { offset: 0x161F9, size: 0x8, addend: 0x0, symName: '__ZN4core3num21_$LT$impl$u20$i32$GT$14from_str_radix17hdc4554ed829a70d6E', symObjAddr: 0x45C, symBinAddr: 0x10000D208, symSize: 0x86C }
  - { offset: 0x167DE, size: 0x8, addend: 0x0, symName: '__ZN4core3num21_$LT$impl$u20$u16$GT$14from_str_radix17hbcd95afebd087134E', symObjAddr: 0xCC8, symBinAddr: 0x10000DA74, symSize: 0x568 }
  - { offset: 0x16B92, size: 0x8, addend: 0x0, symName: '__ZN4core3num21_$LT$impl$u20$u64$GT$14from_str_radix17h3c7f288e26cfa524E', symObjAddr: 0x1230, symBinAddr: 0x10000DFDC, symSize: 0x5A0 }
  - { offset: 0x16E76, size: 0x8, addend: 0x0, symName: '__ZN4core3num23_$LT$impl$u20$isize$GT$13unchecked_neg18precondition_check17h54a7257ec0fda687E', symObjAddr: 0x17D0, symBinAddr: 0x10000E57C, symSize: 0x4C }
  - { offset: 0x16EE1, size: 0x8, addend: 0x0, symName: '__ZN4core3num60_$LT$impl$u20$core..str..traits..FromStr$u20$for$u20$i32$GT$8from_str17h4fcf1c8187d4a294E', symObjAddr: 0x1860, symBinAddr: 0x10000E60C, symSize: 0x3C }
  - { offset: 0x16F15, size: 0x8, addend: 0x0, symName: '__ZN4core3num60_$LT$impl$u20$core..str..traits..FromStr$u20$for$u20$u16$GT$8from_str17h55edb5a12bd05731E', symObjAddr: 0x189C, symBinAddr: 0x10000E648, symSize: 0x3C }
  - { offset: 0x16F96, size: 0x8, addend: 0x0, symName: '__ZN4core3num62_$LT$impl$u20$core..str..traits..FromStr$u20$for$u20$usize$GT$8from_str17h9484fc89024a3bf5E', symObjAddr: 0x18D8, symBinAddr: 0x10000E684, symSize: 0x78 }
  - { offset: 0x187F5, size: 0x8, addend: 0x0, symName: '__ZN111_$LT$alloc..vec..Vec$LT$T$GT$$u20$as$u20$alloc..vec..spec_from_iter_nested..SpecFromIterNested$LT$T$C$I$GT$$GT$9from_iter17h1786e289448c6ae4E', symObjAddr: 0x0, symBinAddr: 0x10000CDAC, symSize: 0x22C }
  - { offset: 0x18A32, size: 0x8, addend: 0x0, symName: '__ZN111_$LT$alloc..vec..Vec$LT$T$GT$$u20$as$u20$alloc..vec..spec_from_iter_nested..SpecFromIterNested$LT$T$C$I$GT$$GT$9from_iter17h20a36f83c6229053E', symObjAddr: 0x22C, symBinAddr: 0x10000CFD8, symSize: 0x230 }
  - { offset: 0x19188, size: 0x8, addend: 0x0, symName: '__ZN70_$LT$alloc..vec..Vec$LT$T$C$A$GT$$u20$as$u20$core..ops..drop..Drop$GT$4drop17h1b16b41d4cb26137E', symObjAddr: 0x2304, symBinAddr: 0x10000F0B0, symSize: 0x24 }
  - { offset: 0x19238, size: 0x8, addend: 0x0, symName: '__ZN70_$LT$alloc..vec..Vec$LT$T$C$A$GT$$u20$as$u20$core..ops..drop..Drop$GT$4drop17h5fafc0281e780196E', symObjAddr: 0x2328, symBinAddr: 0x10000F0D4, symSize: 0x24 }
  - { offset: 0x192E8, size: 0x8, addend: 0x0, symName: '__ZN70_$LT$alloc..vec..Vec$LT$T$C$A$GT$$u20$as$u20$core..ops..drop..Drop$GT$4drop17h6338a1c4b4f7c78aE', symObjAddr: 0x234C, symBinAddr: 0x10000F0F8, symSize: 0x38 }
  - { offset: 0x19398, size: 0x8, addend: 0x0, symName: '__ZN70_$LT$alloc..vec..Vec$LT$T$C$A$GT$$u20$as$u20$core..ops..drop..Drop$GT$4drop17hb56dda6c77a8caf8E', symObjAddr: 0x2384, symBinAddr: 0x10000F130, symSize: 0x38 }
  - { offset: 0x19514, size: 0x8, addend: 0x0, symName: '__ZN81_$LT$alloc..vec..Vec$LT$T$C$A$GT$$u20$as$u20$core..ops..index..Index$LT$I$GT$$GT$5index17h080aa2aa40d15aa7E', symObjAddr: 0x23BC, symBinAddr: 0x10000F168, symSize: 0x84 }
  - { offset: 0x19696, size: 0x8, addend: 0x0, symName: '__ZN81_$LT$alloc..vec..Vec$LT$T$C$A$GT$$u20$as$u20$core..ops..index..Index$LT$I$GT$$GT$5index17h2758ddbf9e63beefE', symObjAddr: 0x2440, symBinAddr: 0x10000F1EC, symSize: 0x80 }
  - { offset: 0x19818, size: 0x8, addend: 0x0, symName: '__ZN81_$LT$alloc..vec..Vec$LT$T$C$A$GT$$u20$as$u20$core..ops..index..Index$LT$I$GT$$GT$5index17h4b5f1ad8c02d1f25E', symObjAddr: 0x24C0, symBinAddr: 0x10000F26C, symSize: 0x84 }
  - { offset: 0x1999A, size: 0x8, addend: 0x0, symName: '__ZN81_$LT$alloc..vec..Vec$LT$T$C$A$GT$$u20$as$u20$core..ops..index..Index$LT$I$GT$$GT$5index17ha8662d150ba61d35E', symObjAddr: 0x2544, symBinAddr: 0x10000F2F0, symSize: 0x84 }
  - { offset: 0x19B88, size: 0x8, addend: 0x0, symName: '__ZN84_$LT$alloc..vec..Vec$LT$T$C$A$GT$$u20$as$u20$core..ops..index..IndexMut$LT$I$GT$$GT$9index_mut17h4d58825259e31396E', symObjAddr: 0x25C8, symBinAddr: 0x10000F374, symSize: 0x84 }
  - { offset: 0x19CDC, size: 0x8, addend: 0x0, symName: '__ZN84_$LT$alloc..vec..Vec$LT$T$C$A$GT$$u20$as$u20$core..ops..index..IndexMut$LT$I$GT$$GT$9index_mut17hac1a68e78be29c4fE', symObjAddr: 0x264C, symBinAddr: 0x10000F3F8, symSize: 0x80 }
  - { offset: 0x19E36, size: 0x8, addend: 0x0, symName: '__ZN95_$LT$alloc..vec..Vec$LT$T$GT$$u20$as$u20$core..iter..traits..collect..FromIterator$LT$T$GT$$GT$9from_iter17h5a18edacb630e8dcE', symObjAddr: 0x26CC, symBinAddr: 0x10000F478, symSize: 0x3C }
  - { offset: 0x19E77, size: 0x8, addend: 0x0, symName: '__ZN95_$LT$alloc..vec..Vec$LT$T$GT$$u20$as$u20$core..iter..traits..collect..FromIterator$LT$T$GT$$GT$9from_iter17hea8faea34843eb2cE', symObjAddr: 0x2708, symBinAddr: 0x10000F4B4, symSize: 0x3C }
  - { offset: 0x19EC3, size: 0x8, addend: 0x0, symName: '__ZN97_$LT$alloc..vec..Vec$LT$T$C$A$GT$$u20$as$u20$alloc..vec..spec_extend..SpecExtend$LT$T$C$I$GT$$GT$11spec_extend17h55f84cb73d126d88E', symObjAddr: 0x2744, symBinAddr: 0x10000F4F0, symSize: 0x24 }
  - { offset: 0x19F15, size: 0x8, addend: 0x0, symName: '__ZN97_$LT$alloc..vec..Vec$LT$T$C$A$GT$$u20$as$u20$alloc..vec..spec_extend..SpecExtend$LT$T$C$I$GT$$GT$11spec_extend17hda1ab0efe4abd518E', symObjAddr: 0x2768, symBinAddr: 0x10000F514, symSize: 0x24 }
  - { offset: 0x19F73, size: 0x8, addend: 0x0, symName: '__ZN98_$LT$alloc..vec..Vec$LT$T$GT$$u20$as$u20$alloc..vec..spec_from_iter..SpecFromIter$LT$T$C$I$GT$$GT$9from_iter17h04c011ed3d600d40E', symObjAddr: 0x278C, symBinAddr: 0x10000F538, symSize: 0x14 }
  - { offset: 0x19FB2, size: 0x8, addend: 0x0, symName: '__ZN98_$LT$alloc..vec..Vec$LT$T$GT$$u20$as$u20$alloc..vec..spec_from_iter..SpecFromIter$LT$T$C$I$GT$$GT$9from_iter17h9635d0aff5436272E', symObjAddr: 0x27A0, symBinAddr: 0x10000F54C, symSize: 0x14 }
  - { offset: 0x1AAC3, size: 0x8, addend: 0x0, symName: '__ZN5alloc3vec12Vec$LT$T$GT$13with_capacity17h59b8bbc93fba00a9E', symObjAddr: 0x1950, symBinAddr: 0x10000E6FC, symSize: 0x44 }
  - { offset: 0x1AB9B, size: 0x8, addend: 0x0, symName: '__ZN5alloc3vec12Vec$LT$T$GT$13with_capacity17h90ac4b8a4375b473E', symObjAddr: 0x1994, symBinAddr: 0x10000E740, symSize: 0x48 }
  - { offset: 0x1AD0A, size: 0x8, addend: 0x0, symName: '__ZN5alloc3vec16Vec$LT$T$C$A$GT$15append_elements17hd1a8e9dedf9fb436E', symObjAddr: 0x19DC, symBinAddr: 0x10000E788, symSize: 0xD0 }
  - { offset: 0x1B067, size: 0x8, addend: 0x0, symName: '__ZN5alloc3vec16Vec$LT$T$C$A$GT$16extend_desugared17hd20921cc6bdde8c1E', symObjAddr: 0x1AAC, symBinAddr: 0x10000E858, symSize: 0x1DC }
  - { offset: 0x1B3E6, size: 0x8, addend: 0x0, symName: '__ZN5alloc3vec16Vec$LT$T$C$A$GT$16extend_desugared17hde440d6a64dd2cf1E', symObjAddr: 0x1C88, symBinAddr: 0x10000EA34, symSize: 0x198 }
  - { offset: 0x1B605, size: 0x8, addend: 0x0, symName: '__ZN5alloc3vec16Vec$LT$T$C$A$GT$3len17heeb8529ad4f0b2daE', symObjAddr: 0x1E20, symBinAddr: 0x10000EBCC, symSize: 0x18 }
  - { offset: 0x1B63A, size: 0x8, addend: 0x0, symName: '__ZN5alloc3vec16Vec$LT$T$C$A$GT$3len17hf03a87488eb578ffE', symObjAddr: 0x1E38, symBinAddr: 0x10000EBE4, symSize: 0x18 }
  - { offset: 0x1B770, size: 0x8, addend: 0x0, symName: '__ZN5alloc3vec16Vec$LT$T$C$A$GT$4push17h2aeecce05dbf177cE', symObjAddr: 0x1E50, symBinAddr: 0x10000EBFC, symSize: 0xDC }
  - { offset: 0x1B9CF, size: 0x8, addend: 0x0, symName: '__ZN5alloc3vec16Vec$LT$T$C$A$GT$4push17h406ce2f7dac1250bE', symObjAddr: 0x1F2C, symBinAddr: 0x10000ECD8, symSize: 0xD8 }
  - { offset: 0x1BC62, size: 0x8, addend: 0x0, symName: '__ZN5alloc3vec16Vec$LT$T$C$A$GT$4push17hdaaaa94358c49093E', symObjAddr: 0x2004, symBinAddr: 0x10000EDB0, symSize: 0x104 }
  - { offset: 0x1BED7, size: 0x8, addend: 0x0, symName: '__ZN5alloc3vec16Vec$LT$T$C$A$GT$5clear17h35422b7fe49e46deE', symObjAddr: 0x2108, symBinAddr: 0x10000EEB4, symSize: 0x74 }
  - { offset: 0x1C13A, size: 0x8, addend: 0x0, symName: '__ZN5alloc3vec16Vec$LT$T$C$A$GT$7reserve17h065d55d59a1e9da1E', symObjAddr: 0x217C, symBinAddr: 0x10000EF28, symSize: 0xC4 }
  - { offset: 0x1C38A, size: 0x8, addend: 0x0, symName: '__ZN5alloc3vec16Vec$LT$T$C$A$GT$7reserve17h88a985f05fecc2ffE', symObjAddr: 0x2240, symBinAddr: 0x10000EFEC, symSize: 0xC4 }
  - { offset: 0x1D078, size: 0x8, addend: 0x0, symName: '__ZN5alloc11collections5btree3map25IntoIter$LT$K$C$V$C$A$GT$10dying_next17h26fe19700e5a54ddE', symObjAddr: 0xEEE0, symBinAddr: 0x10001A91C, symSize: 0x224 }
  - { offset: 0x1D45F, size: 0x8, addend: 0x0, symName: '__ZN5alloc11collections5btree3map25IntoIter$LT$K$C$V$C$A$GT$10dying_next17hd8ef2004f4567c0bE', symObjAddr: 0xF104, symBinAddr: 0x10001AB40, symSize: 0x224 }
  - { offset: 0x1E269, size: 0x8, addend: 0x0, symName: '__ZN5alloc7raw_vec19RawVec$LT$T$C$A$GT$8grow_one17h062d05c8a30a7fb3E', symObjAddr: 0x114D4, symBinAddr: 0x10001B150, symSize: 0xDC }
  - { offset: 0x1E400, size: 0x8, addend: 0x0, symName: '__ZN5alloc7raw_vec19RawVec$LT$T$C$A$GT$8grow_one17h0d8ea8027a10c98aE', symObjAddr: 0x115B0, symBinAddr: 0x10001B22C, symSize: 0xC8 }
  - { offset: 0x1E597, size: 0x8, addend: 0x0, symName: '__ZN5alloc7raw_vec19RawVec$LT$T$C$A$GT$8grow_one17h0f18ad6477028d3eE', symObjAddr: 0x11678, symBinAddr: 0x10001B2F4, symSize: 0xC8 }
  - { offset: 0x1E72E, size: 0x8, addend: 0x0, symName: '__ZN5alloc7raw_vec19RawVec$LT$T$C$A$GT$8grow_one17h10e3e28693172b47E', symObjAddr: 0x11740, symBinAddr: 0x10001B3BC, symSize: 0xD8 }
  - { offset: 0x1E8C5, size: 0x8, addend: 0x0, symName: '__ZN5alloc7raw_vec19RawVec$LT$T$C$A$GT$8grow_one17h12ac4328cec96440E', symObjAddr: 0x11818, symBinAddr: 0x10001B494, symSize: 0xD8 }
  - { offset: 0x1EA5C, size: 0x8, addend: 0x0, symName: '__ZN5alloc7raw_vec19RawVec$LT$T$C$A$GT$8grow_one17h1409dc94c9c3e125E', symObjAddr: 0x118F0, symBinAddr: 0x10001B56C, symSize: 0xC8 }
  - { offset: 0x1EBF3, size: 0x8, addend: 0x0, symName: '__ZN5alloc7raw_vec19RawVec$LT$T$C$A$GT$8grow_one17h285233df94a3c6afE', symObjAddr: 0x119B8, symBinAddr: 0x10001B634, symSize: 0xD8 }
  - { offset: 0x1ED8A, size: 0x8, addend: 0x0, symName: '__ZN5alloc7raw_vec19RawVec$LT$T$C$A$GT$8grow_one17h2a275e03683b7dfaE', symObjAddr: 0x11A90, symBinAddr: 0x10001B70C, symSize: 0xC8 }
  - { offset: 0x1EF21, size: 0x8, addend: 0x0, symName: '__ZN5alloc7raw_vec19RawVec$LT$T$C$A$GT$8grow_one17h2ecd5e2e8a69df61E', symObjAddr: 0x11B58, symBinAddr: 0x10001B7D4, symSize: 0xDC }
  - { offset: 0x1F0B8, size: 0x8, addend: 0x0, symName: '__ZN5alloc7raw_vec19RawVec$LT$T$C$A$GT$8grow_one17h76b14fa5a3f26861E', symObjAddr: 0x11D10, symBinAddr: 0x10001B8B0, symSize: 0xDC }
  - { offset: 0x1F24F, size: 0x8, addend: 0x0, symName: '__ZN5alloc7raw_vec19RawVec$LT$T$C$A$GT$8grow_one17had57b403ec4628abE', symObjAddr: 0x11DEC, symBinAddr: 0x10001B98C, symSize: 0xDC }
  - { offset: 0x1F3E6, size: 0x8, addend: 0x0, symName: '__ZN5alloc7raw_vec19RawVec$LT$T$C$A$GT$8grow_one17hb2b6a25f97d1bea0E', symObjAddr: 0x11EC8, symBinAddr: 0x10001BA68, symSize: 0xC8 }
  - { offset: 0x1FBBA, size: 0x8, addend: 0x0, symName: __ZN5alloc7raw_vec11finish_grow17hbb7324d46fe66053E, symObjAddr: 0x1144C, symBinAddr: 0x100049180, symSize: 0x88 }
  - { offset: 0x1FC52, size: 0x8, addend: 0x0, symName: '__ZN5alloc7raw_vec20RawVecInner$LT$A$GT$7reserve21do_reserve_and_handle17hf8beb4e1913a408eE', symObjAddr: 0x11F90, symBinAddr: 0x100049208, symSize: 0xF0 }
  - { offset: 0x20DBC, size: 0x8, addend: 0x0, symName: '__ZN5alloc4sync16Arc$LT$T$C$A$GT$9drop_slow17h05b449ed03e6c039E', symObjAddr: 0x10EB4, symBinAddr: 0x10001AD64, symSize: 0xC0 }
  - { offset: 0x210E0, size: 0x8, addend: 0x0, symName: '__ZN5alloc4sync16Arc$LT$T$C$A$GT$9drop_slow17h23fd4eee077b6ce8E', symObjAddr: 0x10F74, symBinAddr: 0x10001AE24, symSize: 0x44 }
  - { offset: 0x211BC, size: 0x8, addend: 0x0, symName: '__ZN5alloc4sync16Arc$LT$T$C$A$GT$9drop_slow17h3044fcb7f5af9d08E', symObjAddr: 0x10FB8, symBinAddr: 0x10001AE68, symSize: 0xD0 }
  - { offset: 0x213E8, size: 0x8, addend: 0x0, symName: '__ZN5alloc4sync16Arc$LT$T$C$A$GT$9drop_slow17h72552924fe7e2fafE', symObjAddr: 0x11088, symBinAddr: 0x10001AF38, symSize: 0xA0 }
  - { offset: 0x2170B, size: 0x8, addend: 0x0, symName: '__ZN5alloc4sync16Arc$LT$T$C$A$GT$9drop_slow17haa3d3ba4cbef2992E', symObjAddr: 0x11128, symBinAddr: 0x10001AFD8, symSize: 0x100 }
  - { offset: 0x21A3A, size: 0x8, addend: 0x0, symName: '__ZN5alloc4sync16Arc$LT$T$C$A$GT$9drop_slow17hbb0b79bdfdf6fbc0E', symObjAddr: 0x11358, symBinAddr: 0x10001B0D8, symSize: 0x78 }
  - { offset: 0x22247, size: 0x8, addend: 0x0, symName: '__ZN58_$LT$alloc..string..String$u20$as$u20$core..fmt..Debug$GT$3fmt17hd8ec3aa749687e3eE', symObjAddr: 0xD6CC, symBinAddr: 0x10001A728, symSize: 0x1C }
  - { offset: 0x22301, size: 0x8, addend: 0x0, symName: '__ZN58_$LT$alloc..string..String$u20$as$u20$core..fmt..Write$GT$10write_char17h0fe86e5eb7ba76d9E', symObjAddr: 0xD6E8, symBinAddr: 0x10001A744, symSize: 0x158 }
  - { offset: 0x22564, size: 0x8, addend: 0x0, symName: '__ZN58_$LT$alloc..string..String$u20$as$u20$core..fmt..Write$GT$9write_str17h035d697b88ea7101E', symObjAddr: 0xD840, symBinAddr: 0x10001A89C, symSize: 0x80 }
  - { offset: 0x226BC, size: 0x8, addend: 0x0, symName: '__ZN60_$LT$alloc..string..String$u20$as$u20$core..fmt..Display$GT$3fmt17hef926aa3731bfba7E', symObjAddr: 0x18D68, symBinAddr: 0x100022818, symSize: 0x1C }
  - { offset: 0x23A4E, size: 0x8, addend: 0x0, symName: '__ZN4core3ptr104drop_in_place$LT$alloc..vec..Vec$LT$$LP$usize$C$std..backtrace_rs..symbolize..gimli..Mapping$RP$$GT$$GT$17hd8b6569a50079368E', symObjAddr: 0x1B2C, symBinAddr: 0x100010138, symSize: 0xC4 }
  - { offset: 0x23C13, size: 0x8, addend: 0x0, symName: '__ZN4core3ptr107drop_in_place$LT$core..pin..Pin$LT$alloc..boxed..Box$LT$std..sys..pal..unix..sync..mutex..Mutex$GT$$GT$$GT$17h620eb0c20a03b5e0E', symObjAddr: 0x1DBC, symBinAddr: 0x1000101FC, symSize: 0x2C }
  - { offset: 0x23D04, size: 0x8, addend: 0x0, symName: '__ZN4core3ptr108drop_in_place$LT$alloc..collections..btree..map..BTreeMap$LT$u64$C$gimli..read..abbrev..Abbreviation$GT$$GT$17he2d8280e0040654dE', symObjAddr: 0x1DE8, symBinAddr: 0x100010228, symSize: 0xB0 }
  - { offset: 0x23ED4, size: 0x8, addend: 0x0, symName: '__ZN4core3ptr109drop_in_place$LT$alloc..sync..Arc$LT$std..sync..poison..mutex..Mutex$LT$alloc..vec..Vec$LT$u8$GT$$GT$$GT$$GT$17hcedda04aaaab2003E', symObjAddr: 0x1E98, symBinAddr: 0x1000102D8, symSize: 0x30 }
  - { offset: 0x23F68, size: 0x8, addend: 0x0, symName: '__ZN4core3ptr118drop_in_place$LT$std..io..Write..write_fmt..Adapter$LT$std..io..cursor..Cursor$LT$$RF$mut$u20$$u5b$u8$u5d$$GT$$GT$$GT$17h46f985595c99543cE', symObjAddr: 0x1F60, symBinAddr: 0x100010308, symSize: 0x20 }
  - { offset: 0x23FC5, size: 0x8, addend: 0x0, symName: '__ZN4core3ptr123drop_in_place$LT$addr2line..Context$LT$gimli..read..endian_slice..EndianSlice$LT$gimli..endianity..LittleEndian$GT$$GT$$GT$17h1b92d03191f5b9a0E', symObjAddr: 0x1F80, symBinAddr: 0x100010328, symSize: 0x120 }
  - { offset: 0x242D8, size: 0x8, addend: 0x0, symName: '__ZN4core3ptr123drop_in_place$LT$addr2line..ResUnit$LT$gimli..read..endian_slice..EndianSlice$LT$gimli..endianity..LittleEndian$GT$$GT$$GT$17h9afe9380aae6d367E', symObjAddr: 0x20A0, symBinAddr: 0x100010448, symSize: 0xE4 }
  - { offset: 0x244AD, size: 0x8, addend: 0x0, symName: '__ZN4core3ptr123drop_in_place$LT$addr2line..SupUnit$LT$gimli..read..endian_slice..EndianSlice$LT$gimli..endianity..LittleEndian$GT$$GT$$GT$17h1ee2e02a56bbf5a8E', symObjAddr: 0x2184, symBinAddr: 0x10001052C, symSize: 0x54 }
  - { offset: 0x2459E, size: 0x8, addend: 0x0, symName: '__ZN4core3ptr128drop_in_place$LT$core..result..Result$LT$$RF$std..thread..Thread$C$$LP$$RF$std..thread..Thread$C$std..thread..Thread$RP$$GT$$GT$17h9ad3d5d7ad1f2248E', symObjAddr: 0x2320, symBinAddr: 0x100010580, symSize: 0x40 }
  - { offset: 0x2469C, size: 0x8, addend: 0x0, symName: '__ZN4core3ptr130drop_in_place$LT$gimli..read..dwarf..Dwarf$LT$gimli..read..endian_slice..EndianSlice$LT$gimli..endianity..LittleEndian$GT$$GT$$GT$17h5916efe7f7cb8414E', symObjAddr: 0x2360, symBinAddr: 0x1000105C0, symSize: 0x58 }
  - { offset: 0x24731, size: 0x8, addend: 0x0, symName: '__ZN4core3ptr137drop_in_place$LT$gimli..read..dwarf..Unit$LT$gimli..read..endian_slice..EndianSlice$LT$gimli..endianity..LittleEndian$GT$$C$usize$GT$$GT$17h8066c38f08cd5b55E', symObjAddr: 0x247C, symBinAddr: 0x100010618, symSize: 0x54 }
  - { offset: 0x247FF, size: 0x8, addend: 0x0, symName: '__ZN4core3ptr144drop_in_place$LT$alloc..vec..Vec$LT$core..option..Option$LT$core..option..Option$LT$std..backtrace_rs..symbolize..gimli..Mapping$GT$$GT$$GT$$GT$17h87284fe1bff38305E', symObjAddr: 0x24D0, symBinAddr: 0x10001066C, symSize: 0x10C }
  - { offset: 0x249C1, size: 0x8, addend: 0x0, symName: '__ZN4core3ptr146drop_in_place$LT$alloc..vec..Vec$LT$addr2line..ResUnit$LT$gimli..read..endian_slice..EndianSlice$LT$gimli..endianity..LittleEndian$GT$$GT$$GT$$GT$17h98229f10fe07fec5E', symObjAddr: 0x25DC, symBinAddr: 0x100010778, symSize: 0xC4 }
  - { offset: 0x24B47, size: 0x8, addend: 0x0, symName: '__ZN4core3ptr146drop_in_place$LT$alloc..vec..Vec$LT$addr2line..SupUnit$LT$gimli..read..endian_slice..EndianSlice$LT$gimli..endianity..LittleEndian$GT$$GT$$GT$$GT$17hc2f45ab393875ca6E', symObjAddr: 0x26A0, symBinAddr: 0x10001083C, symSize: 0xF4 }
  - { offset: 0x24D50, size: 0x8, addend: 0x0, symName: '__ZN4core3ptr158drop_in_place$LT$alloc..boxed..Box$LT$$u5b$addr2line..ResUnit$LT$gimli..read..endian_slice..EndianSlice$LT$gimli..endianity..LittleEndian$GT$$GT$$u5d$$GT$$GT$17h64ff81d9fc3da6b4E', symObjAddr: 0x2860, symBinAddr: 0x100010930, symSize: 0xB4 }
  - { offset: 0x24E47, size: 0x8, addend: 0x0, symName: '__ZN4core3ptr158drop_in_place$LT$alloc..boxed..Box$LT$$u5b$addr2line..SupUnit$LT$gimli..read..endian_slice..EndianSlice$LT$gimli..endianity..LittleEndian$GT$$GT$$u5d$$GT$$GT$17hab63a98d0a35b9f0E', symObjAddr: 0x2914, symBinAddr: 0x1000109E4, symSize: 0xE4 }
  - { offset: 0x24FF5, size: 0x8, addend: 0x0, symName: '__ZN4core3ptr159drop_in_place$LT$alloc..sync..ArcInner$LT$gimli..read..dwarf..Dwarf$LT$gimli..read..endian_slice..EndianSlice$LT$gimli..endianity..LittleEndian$GT$$GT$$GT$$GT$17hd109622883dbad0bE', symObjAddr: 0x29F8, symBinAddr: 0x100010AC8, symSize: 0x58 }
  - { offset: 0x25102, size: 0x8, addend: 0x0, symName: '__ZN4core3ptr174drop_in_place$LT$core..result..Result$LT$addr2line..FrameIter$LT$gimli..read..endian_slice..EndianSlice$LT$gimli..endianity..LittleEndian$GT$$GT$$C$gimli..read..Error$GT$$GT$17hbae528fd27f615a6E', symObjAddr: 0x2AFC, symBinAddr: 0x100010B20, symSize: 0x44 }
  - { offset: 0x2527D, size: 0x8, addend: 0x0, symName: '__ZN4core3ptr181drop_in_place$LT$core..option..Option$LT$gimli..read..line..IncompleteLineProgram$LT$gimli..read..endian_slice..EndianSlice$LT$gimli..endianity..LittleEndian$GT$$C$usize$GT$$GT$$GT$17h38e25e71fe8831cdE', symObjAddr: 0x2BB0, symBinAddr: 0x100010B64, symSize: 0x94 }
  - { offset: 0x25571, size: 0x8, addend: 0x0, symName: '__ZN4core3ptr184drop_in_place$LT$core..result..Result$LT$addr2line..function..Functions$LT$gimli..read..endian_slice..EndianSlice$LT$gimli..endianity..LittleEndian$GT$$GT$$C$gimli..read..Error$GT$$GT$17h67b01cc5fe4b4d77E', symObjAddr: 0x2C44, symBinAddr: 0x100010BF8, symSize: 0xD8 }
  - { offset: 0x25F34, size: 0x8, addend: 0x0, symName: '__ZN4core3ptr223drop_in_place$LT$std..sys..thread_local..native..lazy..State$LT$core..cell..Cell$LT$core..option..Option$LT$alloc..sync..Arc$LT$std..sync..poison..mutex..Mutex$LT$alloc..vec..Vec$LT$u8$GT$$GT$$GT$$GT$$GT$$C$$LP$$RP$$GT$$GT$17hf33b6cd44dbd77afE', symObjAddr: 0x2D90, symBinAddr: 0x100010CD0, symSize: 0x40 }
  - { offset: 0x26002, size: 0x8, addend: 0x0, symName: '__ZN4core3ptr250drop_in_place$LT$$LP$gimli..read..UnitOffset$C$addr2line..lazy..LazyCell$LT$core..result..Result$LT$addr2line..function..Function$LT$gimli..read..endian_slice..EndianSlice$LT$gimli..endianity..LittleEndian$GT$$GT$$C$gimli..read..Error$GT$$GT$$RP$$GT$17h5b4f3e306fcf4a3aE', symObjAddr: 0x2DF8, symBinAddr: 0x100010D10, symSize: 0x64 }
  - { offset: 0x26019, size: 0x8, addend: 0x0, symName: '__ZN4core3ptr250drop_in_place$LT$$LP$gimli..read..UnitOffset$C$addr2line..lazy..LazyCell$LT$core..result..Result$LT$addr2line..function..Function$LT$gimli..read..endian_slice..EndianSlice$LT$gimli..endianity..LittleEndian$GT$$GT$$C$gimli..read..Error$GT$$GT$$RP$$GT$17h5b4f3e306fcf4a3aE', symObjAddr: 0x2DF8, symBinAddr: 0x100010D10, symSize: 0x64 }
  - { offset: 0x2602E, size: 0x8, addend: 0x0, symName: '__ZN4core3ptr250drop_in_place$LT$$LP$gimli..read..UnitOffset$C$addr2line..lazy..LazyCell$LT$core..result..Result$LT$addr2line..function..Function$LT$gimli..read..endian_slice..EndianSlice$LT$gimli..endianity..LittleEndian$GT$$GT$$C$gimli..read..Error$GT$$GT$$RP$$GT$17h5b4f3e306fcf4a3aE', symObjAddr: 0x2DF8, symBinAddr: 0x100010D10, symSize: 0x64 }
  - { offset: 0x26043, size: 0x8, addend: 0x0, symName: '__ZN4core3ptr250drop_in_place$LT$$LP$gimli..read..UnitOffset$C$addr2line..lazy..LazyCell$LT$core..result..Result$LT$addr2line..function..Function$LT$gimli..read..endian_slice..EndianSlice$LT$gimli..endianity..LittleEndian$GT$$GT$$C$gimli..read..Error$GT$$GT$$RP$$GT$17h5b4f3e306fcf4a3aE', symObjAddr: 0x2DF8, symBinAddr: 0x100010D10, symSize: 0x64 }
  - { offset: 0x26183, size: 0x8, addend: 0x0, symName: '__ZN4core3ptr273drop_in_place$LT$alloc..vec..Vec$LT$$LP$gimli..read..UnitOffset$C$addr2line..lazy..LazyCell$LT$core..result..Result$LT$addr2line..function..Function$LT$gimli..read..endian_slice..EndianSlice$LT$gimli..endianity..LittleEndian$GT$$GT$$C$gimli..read..Error$GT$$GT$$RP$$GT$$GT$17hc235618391bfcb04E', symObjAddr: 0x2E5C, symBinAddr: 0x100010D74, symSize: 0xAC }
  - { offset: 0x263B1, size: 0x8, addend: 0x0, symName: '__ZN4core3ptr275drop_in_place$LT$gimli..read..line..LineRows$LT$gimli..read..endian_slice..EndianSlice$LT$gimli..endianity..LittleEndian$GT$$C$gimli..read..line..IncompleteLineProgram$LT$gimli..read..endian_slice..EndianSlice$LT$gimli..endianity..LittleEndian$GT$$C$usize$GT$$C$usize$GT$$GT$17hc6795293cbbcc798E', symObjAddr: 0x2F08, symBinAddr: 0x100010E20, symSize: 0x88 }
  - { offset: 0x26623, size: 0x8, addend: 0x0, symName: '__ZN4core3ptr280drop_in_place$LT$$LT$alloc..collections..btree..map..IntoIter$LT$K$C$V$C$A$GT$$u20$as$u20$core..ops..drop..Drop$GT$..drop..DropGuard$LT$u64$C$core..result..Result$LT$alloc..sync..Arc$LT$gimli..read..abbrev..Abbreviations$GT$$C$gimli..read..Error$GT$$C$alloc..alloc..Global$GT$$GT$17h353e5ffc7a96479cE', symObjAddr: 0x2F90, symBinAddr: 0x100010EA8, symSize: 0x84 }
  - { offset: 0x2679B, size: 0x8, addend: 0x0, symName: '__ZN4core3ptr285drop_in_place$LT$alloc..boxed..Box$LT$$u5b$$LP$gimli..read..UnitOffset$C$addr2line..lazy..LazyCell$LT$core..result..Result$LT$addr2line..function..Function$LT$gimli..read..endian_slice..EndianSlice$LT$gimli..endianity..LittleEndian$GT$$GT$$C$gimli..read..Error$GT$$GT$$RP$$u5d$$GT$$GT$17h8446e3ad6c35222eE', symObjAddr: 0x3014, symBinAddr: 0x100010F2C, symSize: 0x9C }
  - { offset: 0x267B2, size: 0x8, addend: 0x0, symName: '__ZN4core3ptr285drop_in_place$LT$alloc..boxed..Box$LT$$u5b$$LP$gimli..read..UnitOffset$C$addr2line..lazy..LazyCell$LT$core..result..Result$LT$addr2line..function..Function$LT$gimli..read..endian_slice..EndianSlice$LT$gimli..endianity..LittleEndian$GT$$GT$$C$gimli..read..Error$GT$$GT$$RP$$u5d$$GT$$GT$17h8446e3ad6c35222eE', symObjAddr: 0x3014, symBinAddr: 0x100010F2C, symSize: 0x9C }
  - { offset: 0x269AD, size: 0x8, addend: 0x0, symName: '__ZN4core3ptr383drop_in_place$LT$core..result..Result$LT$core..option..Option$LT$alloc..boxed..Box$LT$$LP$alloc..sync..Arc$LT$gimli..read..dwarf..Dwarf$LT$gimli..read..endian_slice..EndianSlice$LT$gimli..endianity..LittleEndian$GT$$GT$$GT$$C$gimli..read..dwarf..Unit$LT$gimli..read..endian_slice..EndianSlice$LT$gimli..endianity..LittleEndian$GT$$C$usize$GT$$RP$$GT$$GT$$C$gimli..read..Error$GT$$GT$17h32bd0003606b89f6E', symObjAddr: 0x315C, symBinAddr: 0x100010FC8, symSize: 0xD4 }
  - { offset: 0x26B96, size: 0x8, addend: 0x0, symName: '__ZN4core3ptr40drop_in_place$LT$std..thread..Thread$GT$17h807fd72ff6fb2bfaE', symObjAddr: 0x32AC, symBinAddr: 0x10001109C, symSize: 0x38 }
  - { offset: 0x26C6C, size: 0x8, addend: 0x0, symName: '__ZN4core3ptr42drop_in_place$LT$alloc..string..String$GT$17h9dda68404cced042E', symObjAddr: 0x3360, symBinAddr: 0x1000110D4, symSize: 0x28 }
  - { offset: 0x26D41, size: 0x8, addend: 0x0, symName: '__ZN4core3ptr42drop_in_place$LT$std..io..error..Error$GT$17h3b5734fc7a295b69E', symObjAddr: 0x3388, symBinAddr: 0x1000110FC, symSize: 0xAC }
  - { offset: 0x26F55, size: 0x8, addend: 0x0, symName: '__ZN4core3ptr44drop_in_place$LT$object..read..ObjectMap$GT$17h2a7216525f9d0bf6E', symObjAddr: 0x3434, symBinAddr: 0x1000111A8, symSize: 0x58 }
  - { offset: 0x27090, size: 0x8, addend: 0x0, symName: '__ZN4core3ptr46drop_in_place$LT$std..io..stdio..StdinLock$GT$17h4ac3578af548aab3E', symObjAddr: 0x3564, symBinAddr: 0x100011200, symSize: 0x54 }
  - { offset: 0x270A7, size: 0x8, addend: 0x0, symName: '__ZN4core3ptr46drop_in_place$LT$std..io..stdio..StdinLock$GT$17h4ac3578af548aab3E', symObjAddr: 0x3564, symBinAddr: 0x100011200, symSize: 0x54 }
  - { offset: 0x270BC, size: 0x8, addend: 0x0, symName: '__ZN4core3ptr46drop_in_place$LT$std..io..stdio..StdinLock$GT$17h4ac3578af548aab3E', symObjAddr: 0x3564, symBinAddr: 0x100011200, symSize: 0x54 }
  - { offset: 0x2719D, size: 0x8, addend: 0x0, symName: '__ZN4core3ptr47drop_in_place$LT$std..ffi..os_str..OsString$GT$17h33f9bc597d3e3d2cE', symObjAddr: 0x35E8, symBinAddr: 0x100011254, symSize: 0x28 }
  - { offset: 0x27278, size: 0x8, addend: 0x0, symName: '__ZN4core3ptr55drop_in_place$LT$gimli..read..abbrev..Abbreviations$GT$17h01bca7751e5fdda0E', symObjAddr: 0x3904, symBinAddr: 0x10001127C, symSize: 0x84 }
  - { offset: 0x2742F, size: 0x8, addend: 0x0, symName: '__ZN4core3ptr56drop_in_place$LT$std..sys..sync..rwlock..queue..Node$GT$17he2b02fdd4f01fffdE', symObjAddr: 0x3A08, symBinAddr: 0x100011300, symSize: 0x40 }
  - { offset: 0x2755C, size: 0x8, addend: 0x0, symName: '__ZN4core3ptr60drop_in_place$LT$gimli..read..abbrev..AbbreviationsCache$GT$17ha39fcc71cf0c252dE', symObjAddr: 0x3A58, symBinAddr: 0x100011340, symSize: 0xCC }
  - { offset: 0x2771B, size: 0x8, addend: 0x0, symName: '__ZN4core3ptr62drop_in_place$LT$std..sys..sync..rwlock..queue..PanicGuard$GT$17h84817005232c8380E', symObjAddr: 0x3B24, symBinAddr: 0x10001140C, symSize: 0x44 }
  - { offset: 0x27761, size: 0x8, addend: 0x0, symName: '__ZN4core3ptr64drop_in_place$LT$std..sys..pal..unix..sync..mutex..AttrGuard$GT$17h43e5db45cb361577E', symObjAddr: 0x3B68, symBinAddr: 0x100011450, symSize: 0x48 }
  - { offset: 0x2779C, size: 0x8, addend: 0x0, symName: '__ZN4core3ptr65drop_in_place$LT$alloc..vec..Vec$LT$alloc..string..String$GT$$GT$17h80a07bb6b2959b25E', symObjAddr: 0x3BB0, symBinAddr: 0x100011498, symSize: 0x80 }
  - { offset: 0x2790C, size: 0x8, addend: 0x0, symName: '__ZN4core3ptr65drop_in_place$LT$std..backtrace_rs..symbolize..gimli..Mapping$GT$17hd2f7d50eeca8c326E', symObjAddr: 0x3C30, symBinAddr: 0x100011518, symSize: 0x70 }
  - { offset: 0x2798A, size: 0x8, addend: 0x0, symName: '__ZN4core3ptr66drop_in_place$LT$std..backtrace_rs..backtrace..libunwind..Bomb$GT$17h643998ffb07e9ecaE', symObjAddr: 0x3CF8, symBinAddr: 0x100011588, symSize: 0x40 }
  - { offset: 0x279FB, size: 0x8, addend: 0x0, symName: '__ZN4core3ptr67drop_in_place$LT$alloc..vec..Vec$LT$addr2line..LineSequence$GT$$GT$17h9f15990e313984d0E', symObjAddr: 0x3D38, symBinAddr: 0x1000115C8, symSize: 0x84 }
  - { offset: 0x27B52, size: 0x8, addend: 0x0, symName: '__ZN4core3ptr68drop_in_place$LT$core..option..Option$LT$std..thread..Thread$GT$$GT$17h48ea4a8848120a56E', symObjAddr: 0x3DBC, symBinAddr: 0x10001164C, symSize: 0x40 }
  - { offset: 0x27C2E, size: 0x8, addend: 0x0, symName: '__ZN4core3ptr70drop_in_place$LT$alloc..vec..Vec$LT$std..ffi..os_str..OsString$GT$$GT$17hc8801afa34ffe11dE', symObjAddr: 0x3E78, symBinAddr: 0x10001168C, symSize: 0x80 }
  - { offset: 0x27E01, size: 0x8, addend: 0x0, symName: '__ZN4core3ptr70drop_in_place$LT$std..backtrace_rs..symbolize..gimli..stash..Stash$GT$17hf623dcf59f66c18eE', symObjAddr: 0x3EF8, symBinAddr: 0x10001170C, symSize: 0xB8 }
  - { offset: 0x280D8, size: 0x8, addend: 0x0, symName: '__ZN4core3ptr71drop_in_place$LT$std..backtrace_rs..symbolize..gimli..macho..Object$GT$17h0a58239dde6958f4E', symObjAddr: 0x3FB0, symBinAddr: 0x1000117C4, symSize: 0x15C }
  - { offset: 0x2840C, size: 0x8, addend: 0x0, symName: '__ZN4core3ptr72drop_in_place$LT$core..option..Option$LT$object..read..ObjectMap$GT$$GT$17ha98833c74b6a9010E', symObjAddr: 0x4178, symBinAddr: 0x100011920, symSize: 0x64 }
  - { offset: 0x28550, size: 0x8, addend: 0x0, symName: '__ZN4core3ptr77drop_in_place$LT$alloc..boxed..Box$LT$$u5b$alloc..string..String$u5d$$GT$$GT$17hc56ba6d7bf97e3b7E', symObjAddr: 0x4234, symBinAddr: 0x100011984, symSize: 0x70 }
  - { offset: 0x28567, size: 0x8, addend: 0x0, symName: '__ZN4core3ptr77drop_in_place$LT$alloc..boxed..Box$LT$$u5b$alloc..string..String$u5d$$GT$$GT$17hc56ba6d7bf97e3b7E', symObjAddr: 0x4234, symBinAddr: 0x100011984, symSize: 0x70 }
  - { offset: 0x28670, size: 0x8, addend: 0x0, symName: '__ZN4core3ptr77drop_in_place$LT$std..panicking..begin_panic_handler..FormatStringPayload$GT$17hc6572e918a98a8c8E', symObjAddr: 0x42A4, symBinAddr: 0x1000119F4, symSize: 0x34 }
  - { offset: 0x2872B, size: 0x8, addend: 0x0, symName: '__ZN4core3ptr79drop_in_place$LT$std..sync..poison..rwlock..RwLockReadGuard$LT$$LP$$RP$$GT$$GT$17h71f50557d7356a40E', symObjAddr: 0x43C8, symBinAddr: 0x100011A28, symSize: 0x68 }
  - { offset: 0x287C4, size: 0x8, addend: 0x0, symName: '__ZN4core3ptr81drop_in_place$LT$core..result..Result$LT$$LP$$RP$$C$std..io..error..Error$GT$$GT$17h9d0db821bfbf8206E', symObjAddr: 0x44C4, symBinAddr: 0x100011A90, symSize: 0x20 }
  - { offset: 0x287E4, size: 0x8, addend: 0x0, symName: '__ZN4core3ptr84drop_in_place$LT$alloc..sync..ArcInner$LT$gimli..read..abbrev..Abbreviations$GT$$GT$17h8cc21cd1f1d083baE', symObjAddr: 0x4574, symBinAddr: 0x100011AB0, symSize: 0x84 }
  - { offset: 0x289B8, size: 0x8, addend: 0x0, symName: '__ZN4core3ptr86drop_in_place$LT$core..result..Result$LT$addr2line..Lines$C$gimli..read..Error$GT$$GT$17h7536b96be541d814E', symObjAddr: 0x45F8, symBinAddr: 0x100011B34, symSize: 0xE4 }
  - { offset: 0x28C16, size: 0x8, addend: 0x0, symName: '__ZN4core3ptr87drop_in_place$LT$alloc..sync..ArcInner$LT$std..sys..pal..unix..fs..InnerReadDir$GT$$GT$17hb3a4c1e323bf7af0E', symObjAddr: 0x46DC, symBinAddr: 0x100011C18, symSize: 0x60 }
  - { offset: 0x28DF9, size: 0x8, addend: 0x0, symName: '__ZN4core3ptr88drop_in_place$LT$alloc..vec..Vec$LT$std..backtrace_rs..symbolize..gimli..Library$GT$$GT$17he97f94d761a81b75E', symObjAddr: 0x4770, symBinAddr: 0x100011C78, symSize: 0x98 }
  - { offset: 0x2900B, size: 0x8, addend: 0x0, symName: '__ZN4core3ptr90drop_in_place$LT$std..io..buffered..bufwriter..BufWriter$LT$W$GT$..flush_buf..BufGuard$GT$17h8c94c545504c3f9fE', symObjAddr: 0x4808, symBinAddr: 0x100011D10, symSize: 0x60 }
  - { offset: 0x29180, size: 0x8, addend: 0x0, symName: '__ZN4core3ptr95drop_in_place$LT$core..option..IntoIter$LT$std..backtrace_rs..symbolize..gimli..Library$GT$$GT$17h88e295b487d2e312E', symObjAddr: 0x48E4, symBinAddr: 0x100011D70, symSize: 0x5C }
  - { offset: 0x2919E, size: 0x8, addend: 0x0, symName: '__ZN4core3ptr95drop_in_place$LT$core..option..IntoIter$LT$std..backtrace_rs..symbolize..gimli..Library$GT$$GT$17h88e295b487d2e312E', symObjAddr: 0x48E4, symBinAddr: 0x100011D70, symSize: 0x5C }
  - { offset: 0x291B3, size: 0x8, addend: 0x0, symName: '__ZN4core3ptr95drop_in_place$LT$core..option..IntoIter$LT$std..backtrace_rs..symbolize..gimli..Library$GT$$GT$17h88e295b487d2e312E', symObjAddr: 0x48E4, symBinAddr: 0x100011D70, symSize: 0x5C }
  - { offset: 0x29319, size: 0x8, addend: 0x0, symName: '__ZN4core3ptr95drop_in_place$LT$std..io..buffered..linewriter..LineWriter$LT$std..io..stdio..StdoutRaw$GT$$GT$17hce8b23f6521aadedE', symObjAddr: 0x4940, symBinAddr: 0x100011DCC, symSize: 0xF0 }
  - { offset: 0x2B47B, size: 0x8, addend: 0x0, symName: __ZN4core5slice4sort6shared5pivot11median3_rec17h102466d42431b70aE, symObjAddr: 0x4D60, symBinAddr: 0x100011ED0, symSize: 0xCC }
  - { offset: 0x2B572, size: 0x8, addend: 0x0, symName: __ZN4core5slice4sort6shared5pivot11median3_rec17h11517364b9cab5f9E, symObjAddr: 0x4E2C, symBinAddr: 0x100011F9C, symSize: 0x11C }
  - { offset: 0x2B66B, size: 0x8, addend: 0x0, symName: __ZN4core5slice4sort6shared5pivot11median3_rec17h1ac250c4a83e4542E, symObjAddr: 0x4F48, symBinAddr: 0x1000120B8, symSize: 0xD0 }
  - { offset: 0x2B762, size: 0x8, addend: 0x0, symName: __ZN4core5slice4sort6shared5pivot11median3_rec17h4fb5bc4cf66a4030E, symObjAddr: 0x5018, symBinAddr: 0x100012188, symSize: 0xD0 }
  - { offset: 0x2B859, size: 0x8, addend: 0x0, symName: __ZN4core5slice4sort6shared5pivot11median3_rec17h6fad6c6a260af7f9E, symObjAddr: 0x50E8, symBinAddr: 0x100012258, symSize: 0xCC }
  - { offset: 0x2B950, size: 0x8, addend: 0x0, symName: __ZN4core5slice4sort6shared5pivot11median3_rec17h7bfa4c676833d0e0E, symObjAddr: 0x51B4, symBinAddr: 0x100012324, symSize: 0xD0 }
  - { offset: 0x2BA47, size: 0x8, addend: 0x0, symName: __ZN4core5slice4sort6shared5pivot11median3_rec17h7ef82ce41f8edf56E, symObjAddr: 0x5284, symBinAddr: 0x1000123F4, symSize: 0xCC }
  - { offset: 0x2BB94, size: 0x8, addend: 0x0, symName: __ZN4core5slice4sort6shared5pivot11median3_rec17h99e796737ce88418E, symObjAddr: 0x5350, symBinAddr: 0x1000124C0, symSize: 0x134 }
  - { offset: 0x2BE7F, size: 0x8, addend: 0x0, symName: __ZN4core5slice4sort6shared9smallsort12sort4_stable17hd8f464d664b9a14bE, symObjAddr: 0x5484, symBinAddr: 0x1000125F4, symSize: 0x180 }
  - { offset: 0x2C267, size: 0x8, addend: 0x0, symName: __ZN4core5slice4sort6shared9smallsort12sort4_stable17he0eda34a3e2b4444E, symObjAddr: 0x5604, symBinAddr: 0x100012774, symSize: 0x1B4 }
  - { offset: 0x2C43E, size: 0x8, addend: 0x0, symName: __ZN4core5slice4sort6shared9smallsort12sort8_stable17h834a2cca1395c7d8E, symObjAddr: 0x57B8, symBinAddr: 0x100012928, symSize: 0x2B8 }
  - { offset: 0x2C9C0, size: 0x8, addend: 0x0, symName: __ZN4core5slice4sort6shared9smallsort18small_sort_general17h0ac3a4d18410f989E, symObjAddr: 0x5A70, symBinAddr: 0x100012BE0, symSize: 0x490 }
  - { offset: 0x2D0C6, size: 0x8, addend: 0x0, symName: __ZN4core5slice4sort6shared9smallsort18small_sort_general17h6ec16d9206821662E, symObjAddr: 0x5F00, symBinAddr: 0x100013070, symSize: 0x3E0 }
  - { offset: 0x2D5C7, size: 0x8, addend: 0x0, symName: __ZN4core5slice4sort6shared9smallsort25insertion_sort_shift_left17h0989c4b11ad91600E, symObjAddr: 0x62E0, symBinAddr: 0x100013450, symSize: 0xFC }
  - { offset: 0x2D769, size: 0x8, addend: 0x0, symName: __ZN4core5slice4sort6shared9smallsort25insertion_sort_shift_left17h9184f303003cbbd5E, symObjAddr: 0x63DC, symBinAddr: 0x10001354C, symSize: 0xB0 }
  - { offset: 0x2D7FC, size: 0x8, addend: 0x0, symName: __ZN4core5slice4sort6shared9smallsort25insertion_sort_shift_left17h96bb7fa0340d9f25E, symObjAddr: 0x648C, symBinAddr: 0x1000135FC, symSize: 0xAC }
  - { offset: 0x2D89C, size: 0x8, addend: 0x0, symName: __ZN4core5slice4sort6shared9smallsort25insertion_sort_shift_left17hb5cd8041cfccf514E, symObjAddr: 0x6538, symBinAddr: 0x1000136A8, symSize: 0x90 }
  - { offset: 0x2D93C, size: 0x8, addend: 0x0, symName: __ZN4core5slice4sort6shared9smallsort25insertion_sort_shift_left17hd8089fb2c2aa137dE, symObjAddr: 0x65C8, symBinAddr: 0x100013738, symSize: 0xB4 }
  - { offset: 0x2D9DC, size: 0x8, addend: 0x0, symName: __ZN4core5slice4sort6shared9smallsort25insertion_sort_shift_left17hdef07ab9d854a7f9E, symObjAddr: 0x667C, symBinAddr: 0x1000137EC, symSize: 0xCC }
  - { offset: 0x2DAE7, size: 0x8, addend: 0x0, symName: __ZN4core5slice4sort6shared9smallsort25insertion_sort_shift_left17he1267148c662cf6cE, symObjAddr: 0x6748, symBinAddr: 0x1000138B8, symSize: 0xBC }
  - { offset: 0x2DB87, size: 0x8, addend: 0x0, symName: __ZN4core5slice4sort6shared9smallsort25insertion_sort_shift_left17he3b8de4d5a76f0d1E, symObjAddr: 0x6804, symBinAddr: 0x100013974, symSize: 0xA8 }
  - { offset: 0x2DE4A, size: 0x8, addend: 0x0, symName: __ZN4core5slice4sort6stable14driftsort_main17h12174fbcf252d4e5E, symObjAddr: 0x68AC, symBinAddr: 0x100013A1C, symSize: 0x16C }
  - { offset: 0x2E185, size: 0x8, addend: 0x0, symName: __ZN4core5slice4sort6stable14driftsort_main17h2c015a5cf56d7fbdE, symObjAddr: 0x6A18, symBinAddr: 0x100013B88, symSize: 0x148 }
  - { offset: 0x2E3E8, size: 0x8, addend: 0x0, symName: __ZN4core5slice4sort6stable14driftsort_main17h2f22f9cd1fb91e21E, symObjAddr: 0x6B60, symBinAddr: 0x100013CD0, symSize: 0x148 }
  - { offset: 0x2E6CD, size: 0x8, addend: 0x0, symName: __ZN4core5slice4sort6stable14driftsort_main17h82aa6a423ccdf743E, symObjAddr: 0x6CA8, symBinAddr: 0x100013E18, symSize: 0x16C }
  - { offset: 0x2EA08, size: 0x8, addend: 0x0, symName: __ZN4core5slice4sort6stable14driftsort_main17ha6d0cd62a6e0e28aE, symObjAddr: 0x6E14, symBinAddr: 0x100013F84, symSize: 0x148 }
  - { offset: 0x2ECED, size: 0x8, addend: 0x0, symName: __ZN4core5slice4sort6stable14driftsort_main17hccf74d0c5c087230E, symObjAddr: 0x6F5C, symBinAddr: 0x1000140CC, symSize: 0x148 }
  - { offset: 0x2F1A0, size: 0x8, addend: 0x0, symName: __ZN4core5slice4sort6stable5drift4sort17h09a57828391b8bfaE, symObjAddr: 0x70A4, symBinAddr: 0x100014214, symSize: 0x63C }
  - { offset: 0x2F85F, size: 0x8, addend: 0x0, symName: __ZN4core5slice4sort6stable5drift4sort17h3d0bb4c3140d0d01E, symObjAddr: 0x76E0, symBinAddr: 0x100014850, symSize: 0x5E8 }
  - { offset: 0x2FF32, size: 0x8, addend: 0x0, symName: __ZN4core5slice4sort6stable5drift4sort17h40b131580120085aE, symObjAddr: 0x7CC8, symBinAddr: 0x100014E38, symSize: 0x538 }
  - { offset: 0x30651, size: 0x8, addend: 0x0, symName: __ZN4core5slice4sort6stable5drift4sort17h65c07a24b8269eb8E, symObjAddr: 0x8200, symBinAddr: 0x100015370, symSize: 0x5E0 }
  - { offset: 0x30CFC, size: 0x8, addend: 0x0, symName: __ZN4core5slice4sort6stable5drift4sort17hb125d90edfefbb3eE, symObjAddr: 0x87E0, symBinAddr: 0x100015950, symSize: 0x6F0 }
  - { offset: 0x3141A, size: 0x8, addend: 0x0, symName: __ZN4core5slice4sort6stable5drift4sort17hf5ad701f2fcaa020E, symObjAddr: 0x8ED0, symBinAddr: 0x100016040, symSize: 0x4E0 }
  - { offset: 0x31C7D, size: 0x8, addend: 0x0, symName: __ZN4core5slice4sort6stable9quicksort9quicksort17h10ae87d02ab1123fE, symObjAddr: 0x93B0, symBinAddr: 0x100016520, symSize: 0x6C8 }
  - { offset: 0x326F7, size: 0x8, addend: 0x0, symName: __ZN4core5slice4sort6stable9quicksort9quicksort17h214f26053ebdb6a6E, symObjAddr: 0x9A78, symBinAddr: 0x100016BE8, symSize: 0x7FC }
  - { offset: 0x332B3, size: 0x8, addend: 0x0, symName: __ZN4core5slice4sort6stable9quicksort9quicksort17h33382726608c75edE, symObjAddr: 0xA274, symBinAddr: 0x1000173E4, symSize: 0x820 }
  - { offset: 0x33E71, size: 0x8, addend: 0x0, symName: __ZN4core5slice4sort6stable9quicksort9quicksort17h595e56f59978533bE, symObjAddr: 0xAA94, symBinAddr: 0x100017C04, symSize: 0x6F0 }
  - { offset: 0x348EB, size: 0x8, addend: 0x0, symName: __ZN4core5slice4sort6stable9quicksort9quicksort17hbe76084cec75eee4E, symObjAddr: 0xB184, symBinAddr: 0x1000182F4, symSize: 0x73C }
  - { offset: 0x34FF0, size: 0x8, addend: 0x0, symName: __ZN4core5slice4sort6stable9quicksort9quicksort17hd28cecf8acb91878E, symObjAddr: 0xB8C0, symBinAddr: 0x100018A30, symSize: 0x828 }
  - { offset: 0x360CF, size: 0x8, addend: 0x0, symName: __ZN4core5slice4sort8unstable7ipnsort17hb41fabd2da2368e0E, symObjAddr: 0xC0E8, symBinAddr: 0x100019258, symSize: 0x290 }
  - { offset: 0x36361, size: 0x8, addend: 0x0, symName: __ZN4core5slice4sort8unstable7ipnsort17hba515166cebb11c3E, symObjAddr: 0xC378, symBinAddr: 0x1000194E8, symSize: 0x1E4 }
  - { offset: 0x36483, size: 0x8, addend: 0x0, symName: __ZN4core5slice4sort8unstable8heapsort8heapsort17h911b53a7fd699b42E, symObjAddr: 0xC55C, symBinAddr: 0x1000196CC, symSize: 0x160 }
  - { offset: 0x367A8, size: 0x8, addend: 0x0, symName: __ZN4core5slice4sort8unstable8heapsort8heapsort17hda02349af9cefcf8E, symObjAddr: 0xC6BC, symBinAddr: 0x10001982C, symSize: 0x10C }
  - { offset: 0x36A41, size: 0x8, addend: 0x0, symName: __ZN4core5slice4sort8unstable9quicksort9quicksort17h3bb1bd802cab80b7E, symObjAddr: 0xC7C8, symBinAddr: 0x100019938, symSize: 0x5BC }
  - { offset: 0x37664, size: 0x8, addend: 0x0, symName: __ZN4core5slice4sort8unstable9quicksort9quicksort17he8a78c636d0351ecE, symObjAddr: 0xCD84, symBinAddr: 0x100019EF4, symSize: 0x448 }
  - { offset: 0x37FE1, size: 0x8, addend: 0x0, symName: '__ZN36_$LT$T$u20$as$u20$core..any..Any$GT$7type_id17h236c814d70452eb5E', symObjAddr: 0x13C, symBinAddr: 0x10000F574, symSize: 0x30 }
  - { offset: 0x37FFA, size: 0x8, addend: 0x0, symName: '__ZN36_$LT$T$u20$as$u20$core..any..Any$GT$7type_id17h5091787616ad0692E', symObjAddr: 0x19C, symBinAddr: 0x10000F5A4, symSize: 0x30 }
  - { offset: 0x38055, size: 0x8, addend: 0x0, symName: '__ZN42_$LT$$RF$T$u20$as$u20$core..fmt..Debug$GT$3fmt17h37707a9a724a6a16E', symObjAddr: 0x4FC, symBinAddr: 0x10000F5D4, symSize: 0x1C }
  - { offset: 0x38068, size: 0x8, addend: 0x0, symName: '__ZN42_$LT$$RF$T$u20$as$u20$core..fmt..Debug$GT$3fmt17h8a402db443669dddE', symObjAddr: 0x9B0, symBinAddr: 0x10000F5F0, symSize: 0x30 }
  - { offset: 0x380AD, size: 0x8, addend: 0x0, symName: '__ZN42_$LT$$RF$T$u20$as$u20$core..fmt..Debug$GT$3fmt17hb38453209ac74e7cE', symObjAddr: 0xAA8, symBinAddr: 0x10000F620, symSize: 0x30 }
  - { offset: 0x380F2, size: 0x8, addend: 0x0, symName: '__ZN42_$LT$$RF$T$u20$as$u20$core..fmt..Debug$GT$3fmt17hb721265ef7578e2fE', symObjAddr: 0xAD8, symBinAddr: 0x10000F650, symSize: 0x64 }
  - { offset: 0x38127, size: 0x8, addend: 0x0, symName: '__ZN42_$LT$$RF$T$u20$as$u20$core..fmt..Debug$GT$3fmt17he69f975b951a3f91E', symObjAddr: 0xC60, symBinAddr: 0x10000F6B4, symSize: 0x1C }
  - { offset: 0x381A8, size: 0x8, addend: 0x0, symName: '__ZN4core3fmt3num50_$LT$impl$u20$core..fmt..Debug$u20$for$u20$i32$GT$3fmt17h97822028e78381deE', symObjAddr: 0xD84, symBinAddr: 0x10000F754, symSize: 0x2C }
  - { offset: 0x384DC, size: 0x8, addend: 0x0, symName: '__ZN44_$LT$$RF$T$u20$as$u20$core..fmt..Display$GT$3fmt17h67831521bc10098aE', symObjAddr: 0xCB4, symBinAddr: 0x10000F6D0, symSize: 0x68 }
  - { offset: 0x385EA, size: 0x8, addend: 0x0, symName: '__ZN44_$LT$$RF$T$u20$as$u20$core..fmt..Display$GT$3fmt17ha5698b9abc752392E', symObjAddr: 0xD1C, symBinAddr: 0x10000F738, symSize: 0x1C }
  - { offset: 0x38624, size: 0x8, addend: 0x0, symName: __ZN4core3fmt5Write10write_char17h4ae31e5453a5243dE, symObjAddr: 0xE60, symBinAddr: 0x10000F780, symSize: 0x17C }
  - { offset: 0x387AC, size: 0x8, addend: 0x0, symName: __ZN4core3fmt5Write10write_char17h8d806e3ac8f3b69eE, symObjAddr: 0xFDC, symBinAddr: 0x10000F8FC, symSize: 0x174 }
  - { offset: 0x389E7, size: 0x8, addend: 0x0, symName: __ZN4core3fmt5Write10write_char17hd4af00686050239dE, symObjAddr: 0x12CC, symBinAddr: 0x10000FA70, symSize: 0x140 }
  - { offset: 0x38A4B, size: 0x8, addend: 0x0, symName: __ZN4core3fmt5Write10write_char17hd5787e0cd3f8328aE, symObjAddr: 0x140C, symBinAddr: 0x10000FBB0, symSize: 0x128 }
  - { offset: 0x38BE1, size: 0x8, addend: 0x0, symName: __ZN4core3fmt5Write10write_char17he4715517d6f34567E, symObjAddr: 0x1534, symBinAddr: 0x10000FCD8, symSize: 0x140 }
  - { offset: 0x38C99, size: 0x8, addend: 0x0, symName: __ZN4core3fmt5Write9write_fmt17h0e4c6d685c9b6118E, symObjAddr: 0x1674, symBinAddr: 0x10000FE18, symSize: 0x1C }
  - { offset: 0x38CC7, size: 0x8, addend: 0x0, symName: __ZN4core3fmt5Write9write_fmt17h17705949611f0d28E, symObjAddr: 0x1690, symBinAddr: 0x10000FE34, symSize: 0x1C }
  - { offset: 0x38CF5, size: 0x8, addend: 0x0, symName: __ZN4core3fmt5Write9write_fmt17h1f617c31aa5d7850E, symObjAddr: 0x16AC, symBinAddr: 0x10000FE50, symSize: 0x1C }
  - { offset: 0x38D23, size: 0x8, addend: 0x0, symName: __ZN4core3fmt5Write9write_fmt17h39368f6b59d59566E, symObjAddr: 0x16C8, symBinAddr: 0x10000FE6C, symSize: 0x1C }
  - { offset: 0x38D51, size: 0x8, addend: 0x0, symName: __ZN4core3fmt5Write9write_fmt17h9a78cf5558a85d1aE, symObjAddr: 0x16E4, symBinAddr: 0x10000FE88, symSize: 0x1C }
  - { offset: 0x38D7F, size: 0x8, addend: 0x0, symName: __ZN4core3fmt5Write9write_fmt17hc5ddf5c104dfa578E, symObjAddr: 0x171C, symBinAddr: 0x10000FEA4, symSize: 0x1C }
  - { offset: 0x38DD9, size: 0x8, addend: 0x0, symName: '__ZN50_$LT$$BP$mut$u20$T$u20$as$u20$core..fmt..Debug$GT$3fmt17h86c1233548678dd3E', symObjAddr: 0xD26C, symBinAddr: 0x10001A33C, symSize: 0x14 }
  - { offset: 0x38E25, size: 0x8, addend: 0x0, symName: '__ZN52_$LT$$RF$mut$u20$T$u20$as$u20$core..fmt..Display$GT$3fmt17ha09ecf8075f78e89E', symObjAddr: 0xD2F4, symBinAddr: 0x10001A350, symSize: 0x1C }
  - { offset: 0x38E75, size: 0x8, addend: 0x0, symName: '__ZN55_$LT$$RF$str$u20$as$u20$core..str..pattern..Pattern$GT$15is_contained_in17h05fb9176bb49bbebE', symObjAddr: 0xD310, symBinAddr: 0x10001A36C, symSize: 0x3BC }
  - { offset: 0x39B8E, size: 0x8, addend: 0x0, symName: __ZN4core5panic12PanicPayload6as_str17h12945ee98ae0dd44E, symObjAddr: 0x4D4C, symBinAddr: 0x100011EBC, symSize: 0x14 }
  - { offset: 0x3ACBD, size: 0x8, addend: 0x0, symName: '__ZN4core3ops8function6FnOnce40call_once$u7b$$u7b$vtable.shim$u7d$$u7d$17h1b7ebe52ff360ba2E', symObjAddr: 0x1760, symBinAddr: 0x10000FEC0, symSize: 0x10 }
  - { offset: 0x3ACF7, size: 0x8, addend: 0x0, symName: '__ZN4core3ops8function6FnOnce40call_once$u7b$$u7b$vtable.shim$u7d$$u7d$17h23a5d57aded0fb59E', symObjAddr: 0x1784, symBinAddr: 0x10000FED0, symSize: 0x7C }
  - { offset: 0x3AE6D, size: 0x8, addend: 0x0, symName: '__ZN4core3ops8function6FnOnce40call_once$u7b$$u7b$vtable.shim$u7d$$u7d$17h2a39296c01b1f7f0E', symObjAddr: 0x1800, symBinAddr: 0x10000FF4C, symSize: 0x10 }
  - { offset: 0x3AEA7, size: 0x8, addend: 0x0, symName: '__ZN4core3ops8function6FnOnce40call_once$u7b$$u7b$vtable.shim$u7d$$u7d$17h66cd049df3a3bcbeE', symObjAddr: 0x1828, symBinAddr: 0x10000FF5C, symSize: 0xA4 }
  - { offset: 0x3AFEB, size: 0x8, addend: 0x0, symName: '__ZN4core3ops8function6FnOnce40call_once$u7b$$u7b$vtable.shim$u7d$$u7d$17hc627cc184faadbf1E', symObjAddr: 0x18F4, symBinAddr: 0x100010000, symSize: 0x28 }
  - { offset: 0x3B025, size: 0x8, addend: 0x0, symName: '__ZN4core3ops8function6FnOnce40call_once$u7b$$u7b$vtable.shim$u7d$$u7d$17he3d0dcf6a6cf5c1fE', symObjAddr: 0x19CC, symBinAddr: 0x100010028, symSize: 0x18 }
  - { offset: 0x3B074, size: 0x8, addend: 0x0, symName: '__ZN4core3ops8function6FnOnce40call_once$u7b$$u7b$vtable.shim$u7d$$u7d$17he9b307618c5ac660E', symObjAddr: 0x1A0C, symBinAddr: 0x100010040, symSize: 0x80 }
  - { offset: 0x3B206, size: 0x8, addend: 0x0, symName: '__ZN4core3ops8function6FnOnce40call_once$u7b$$u7b$vtable.shim$u7d$$u7d$17hfcc96a697c420067E', symObjAddr: 0x1A8C, symBinAddr: 0x1000100C0, symSize: 0x18 }
  - { offset: 0x3B255, size: 0x8, addend: 0x0, symName: '__ZN4core3ops8function6FnOnce40call_once$u7b$$u7b$vtable.shim$u7d$$u7d$17hfddbab5f4d781eb0E', symObjAddr: 0x1AA4, symBinAddr: 0x1000100D8, symSize: 0x60 }
  - { offset: 0x3D5DB, size: 0x8, addend: 0x0, symName: '__ZN4core4cell4once17OnceCell$LT$T$GT$8try_init17h5ae554ac076cd38cE', symObjAddr: 0x4A30, symBinAddr: 0x100048FC0, symSize: 0x178 }
  - { offset: 0x3DA23, size: 0x8, addend: 0x0, symName: __ZN4core9panicking13assert_failed17h778e122aadd61689E, symObjAddr: 0xD1F0, symBinAddr: 0x100049138, symSize: 0x24 }
  - { offset: 0x3DA3D, size: 0x8, addend: 0x0, symName: __ZN4core9panicking13assert_failed17hc66737b3adabfea9E, symObjAddr: 0xD214, symBinAddr: 0x10004915C, symSize: 0x24 }
  - { offset: 0x3DDD7, size: 0x8, addend: 0x0, symName: __ZN3std9panicking11panic_count8increase17hbb9dec7c4e821342E, symObjAddr: 0x3AA88, symBinAddr: 0x10002E220, symSize: 0x80 }
  - { offset: 0x3DECA, size: 0x8, addend: 0x0, symName: __ZN3std9panicking11panic_count17is_zero_slow_path17hc2a1cf4dbc89efdbE, symObjAddr: 0x3ABA0, symBinAddr: 0x1000499F4, symSize: 0x2C }
  - { offset: 0x3E017, size: 0x8, addend: 0x0, symName: ___rust_drop_panic, symObjAddr: 0x3A1E0, symBinAddr: 0x10002DBEC, symSize: 0xB8 }
  - { offset: 0x3E208, size: 0x8, addend: 0x0, symName: ___rust_foreign_exception, symObjAddr: 0x3A298, symBinAddr: 0x10002DCA4, symSize: 0xB8 }
  - { offset: 0x3E40B, size: 0x8, addend: 0x0, symName: '__ZN3std9panicking12default_hook28_$u7b$$u7b$closure$u7d$$u7d$17h646e398272c5759aE', symObjAddr: 0x3A860, symBinAddr: 0x10002DFF8, symSize: 0x1BC }
  - { offset: 0x3E4BD, size: 0x8, addend: 0x0, symName: '__ZN3std9panicking12default_hook28_$u7b$$u7b$closure$u7d$$u7d$28_$u7b$$u7b$closure$u7d$$u7d$17h8f0679967d3c177fE', symObjAddr: 0x3AA1C, symBinAddr: 0x10002E1B4, symSize: 0x6C }
  - { offset: 0x3E4F0, size: 0x8, addend: 0x0, symName: __ZN3std9panicking12default_hook17hf65fd28e95db7176E, symObjAddr: 0x3A5C4, symBinAddr: 0x10002DD5C, symSize: 0x29C }
  - { offset: 0x3E8C9, size: 0x8, addend: 0x0, symName: _rust_begin_unwind, symObjAddr: 0x3AC20, symBinAddr: 0x10002E2A0, symSize: 0x20 }
  - { offset: 0x3E92F, size: 0x8, addend: 0x0, symName: '__ZN102_$LT$std..panicking..begin_panic_handler..FormatStringPayload$u20$as$u20$core..panic..PanicPayload$GT$8take_box17h8729c9d5ff07bfc2E', symObjAddr: 0x3AC40, symBinAddr: 0x10002E2C0, symSize: 0x110 }
  - { offset: 0x3EBBF, size: 0x8, addend: 0x0, symName: '__ZN102_$LT$std..panicking..begin_panic_handler..FormatStringPayload$u20$as$u20$core..panic..PanicPayload$GT$3get17h14f63a7fe9063c7cE', symObjAddr: 0x3AD50, symBinAddr: 0x10002E3D0, symSize: 0xB0 }
  - { offset: 0x3ECF6, size: 0x8, addend: 0x0, symName: '__ZN95_$LT$std..panicking..begin_panic_handler..FormatStringPayload$u20$as$u20$core..fmt..Display$GT$3fmt17h744ae9e96c8f2f6bE', symObjAddr: 0x3AE00, symBinAddr: 0x10002E480, symSize: 0x5C }
  - { offset: 0x3EDF1, size: 0x8, addend: 0x0, symName: '__ZN99_$LT$std..panicking..begin_panic_handler..StaticStrPayload$u20$as$u20$core..panic..PanicPayload$GT$8take_box17h62e767fe26db69c0E', symObjAddr: 0x3AE5C, symBinAddr: 0x10002E4DC, symSize: 0x50 }
  - { offset: 0x3EE66, size: 0x8, addend: 0x0, symName: '__ZN99_$LT$std..panicking..begin_panic_handler..StaticStrPayload$u20$as$u20$core..panic..PanicPayload$GT$3get17h8d815fbf7dbed213E', symObjAddr: 0x3AEAC, symBinAddr: 0x10002E52C, symSize: 0x18 }
  - { offset: 0x3EE80, size: 0x8, addend: 0x0, symName: '__ZN99_$LT$std..panicking..begin_panic_handler..StaticStrPayload$u20$as$u20$core..panic..PanicPayload$GT$6as_str17h5fb5f8732a0583f9E', symObjAddr: 0x3AEC4, symBinAddr: 0x10002E544, symSize: 0x18 }
  - { offset: 0x3EEA0, size: 0x8, addend: 0x0, symName: '__ZN92_$LT$std..panicking..begin_panic_handler..StaticStrPayload$u20$as$u20$core..fmt..Display$GT$3fmt17hd97b3d89ff001039E', symObjAddr: 0x3AEDC, symBinAddr: 0x10002E55C, symSize: 0x1C }
  - { offset: 0x3EEBB, size: 0x8, addend: 0x0, symName: '__ZN3std9panicking19begin_panic_handler28_$u7b$$u7b$closure$u7d$$u7d$17h3b6449e2eb83bf4cE', symObjAddr: 0x3AEF8, symBinAddr: 0x10002E578, symSize: 0xC4 }
  - { offset: 0x3F020, size: 0x8, addend: 0x0, symName: __ZN3std9panicking14payload_as_str17hebcac46df9b9bb7fE, symObjAddr: 0x3B0A8, symBinAddr: 0x10002E63C, symSize: 0xB0 }
  - { offset: 0x3F103, size: 0x8, addend: 0x0, symName: __ZN3std9panicking20rust_panic_with_hook17hc9e2ec2a12b10e12E, symObjAddr: 0x3B158, symBinAddr: 0x10002E6EC, symSize: 0x434 }
  - { offset: 0x3F874, size: 0x8, addend: 0x0, symName: _rust_panic, symObjAddr: 0x3B6C0, symBinAddr: 0x10002EB20, symSize: 0x60 }
  - { offset: 0x3F926, size: 0x8, addend: 0x0, symName: __ZN3std4path4Path13_strip_prefix17h7a96ca05190f16abE, symObjAddr: 0x33988, symBinAddr: 0x10002C780, symSize: 0x21C }
  - { offset: 0x3FA64, size: 0x8, addend: 0x0, symName: __ZN3std4path4Path5_join17h0cbc2a0536a43468E, symObjAddr: 0x341A8, symBinAddr: 0x10002C99C, symSize: 0x1AC }
  - { offset: 0x3FFEF, size: 0x8, addend: 0x0, symName: __ZN3std4path10Components15len_before_body17hdc4efd47bc26ca53E, symObjAddr: 0x31C0C, symBinAddr: 0x10002B910, symSize: 0x188 }
  - { offset: 0x40006, size: 0x8, addend: 0x0, symName: __ZN3std4path10Components15len_before_body17hdc4efd47bc26ca53E, symObjAddr: 0x31C0C, symBinAddr: 0x10002B910, symSize: 0x188 }
  - { offset: 0x4001B, size: 0x8, addend: 0x0, symName: __ZN3std4path10Components15len_before_body17hdc4efd47bc26ca53E, symObjAddr: 0x31C0C, symBinAddr: 0x10002B910, symSize: 0x188 }
  - { offset: 0x401F5, size: 0x8, addend: 0x0, symName: __ZN3std4path10Components7as_path17h73ff45a802c3a554E, symObjAddr: 0x31D94, symBinAddr: 0x10002BA98, symSize: 0x530 }
  - { offset: 0x406BE, size: 0x8, addend: 0x0, symName: __ZN3std4path10Components25parse_next_component_back17hc1eaffbfa7d492e3E, symObjAddr: 0x322C4, symBinAddr: 0x10002BFC8, symSize: 0x120 }
  - { offset: 0x408B9, size: 0x8, addend: 0x0, symName: '__ZN80_$LT$std..path..Components$u20$as$u20$core..iter..traits..iterator..Iterator$GT$4next17hc76124ad2d87242dE', symObjAddr: 0x3257C, symBinAddr: 0x10002C0E8, symSize: 0x340 }
  - { offset: 0x40C02, size: 0x8, addend: 0x0, symName: '__ZN95_$LT$std..path..Components$u20$as$u20$core..iter..traits..double_ended..DoubleEndedIterator$GT$9next_back17h114f55ef86e7211aE', symObjAddr: 0x328BC, symBinAddr: 0x10002C428, symSize: 0x330 }
  - { offset: 0x40D79, size: 0x8, addend: 0x0, symName: '__ZN55_$LT$std..path..PathBuf$u20$as$u20$core..fmt..Debug$GT$3fmt17hdec4569c00d25086E', symObjAddr: 0x3384C, symBinAddr: 0x10002C758, symSize: 0x28 }
  - { offset: 0x40F3B, size: 0x8, addend: 0x0, symName: '__ZN61_$LT$std..path..Component$u20$as$u20$core..cmp..PartialEq$GT$2eq17hd13dbf3fd4ac317fE', symObjAddr: 0x3C1A8, symBinAddr: 0x10002F268, symSize: 0x138 }
  - { offset: 0x41090, size: 0x8, addend: 0x0, symName: __ZN3std7process5abort17hb91c014ef2b635b5E, symObjAddr: 0x35EEC, symBinAddr: 0x1000495C8, symSize: 0xC }
  - { offset: 0x41119, size: 0x8, addend: 0x0, symName: __ZN3std3sys3pal4unix2fs4File6open_c17ha8f30e8f03572c8aE, symObjAddr: 0x3D318, symBinAddr: 0x10002F5A4, symSize: 0x1A8 }
  - { offset: 0x41276, size: 0x8, addend: 0x0, symName: '__ZN91_$LT$std..sys..pal..unix..fs..ReadDir$u20$as$u20$core..iter..traits..iterator..Iterator$GT$4next17hdc4c84704677d248E', symObjAddr: 0x3CE88, symBinAddr: 0x10002F3A0, symSize: 0x138 }
  - { offset: 0x4151C, size: 0x8, addend: 0x0, symName: '__ZN70_$LT$std..sys..pal..unix..fs..Dir$u20$as$u20$core..ops..drop..Drop$GT$4drop17ha5730963111de306E', symObjAddr: 0x3CFC0, symBinAddr: 0x10002F4D8, symSize: 0xCC }
  - { offset: 0x415FE, size: 0x8, addend: 0x0, symName: __ZN3std3sys3pal4unix2fs7readdir17h02f6e5bda5f982bdE, symObjAddr: 0x3DBE4, symBinAddr: 0x10002F74C, symSize: 0x1A4 }
  - { offset: 0x41909, size: 0x8, addend: 0x0, symName: __ZN3std3sys3pal4unix2os13env_read_lock17h703f61f7a0f7cd0bE, symObjAddr: 0x405E8, symBinAddr: 0x10002F8F0, symSize: 0x324 }
  - { offset: 0x41F8F, size: 0x8, addend: 0x0, symName: '__ZN3std3sys3pal4unix2os6getenv28_$u7b$$u7b$closure$u7d$$u7d$17h2cddcdf732a53df5E', symObjAddr: 0x4090C, symBinAddr: 0x10002FC14, symSize: 0x150 }
  - { offset: 0x42224, size: 0x8, addend: 0x0, symName: __ZN3std3sys3pal4unix4sync5mutex5Mutex4init17h537469914282149fE, symObjAddr: 0x43720, symBinAddr: 0x1000300B8, symSize: 0x16C }
  - { offset: 0x422B8, size: 0x8, addend: 0x0, symName: __ZN3std3sys3pal4unix4sync5mutex5Mutex6unlock17hf1d54d73e2a9f45bE, symObjAddr: 0x439A0, symBinAddr: 0x100030224, symSize: 0x10 }
  - { offset: 0x422E9, size: 0x8, addend: 0x0, symName: __ZN3std3sys3pal4unix4sync5mutex5Mutex4lock4fail17ha88dfb5d9e311deaE, symObjAddr: 0x438A8, symBinAddr: 0x100049A20, symSize: 0xDC }
  - { offset: 0x425A0, size: 0x8, addend: 0x0, symName: __ZN3std3sys3pal4unix14stack_overflow3imp14signal_handler17h113b3ee20eaf3fcaE, symObjAddr: 0x4318C, symBinAddr: 0x10002FD64, symSize: 0x174 }
  - { offset: 0x427A7, size: 0x8, addend: 0x0, symName: __ZN3std3sys3pal4unix14stack_overflow3imp12make_handler17h8bd3e77b9c0669bfE, symObjAddr: 0x43300, symBinAddr: 0x10002FED8, symSize: 0x1E0 }
  - { offset: 0x42B10, size: 0x8, addend: 0x0, symName: __ZN3std3sys3pal4unix4time8Timespec3now17h7b8a2c4756464a74E, symObjAddr: 0x43EAC, symBinAddr: 0x100030234, symSize: 0x114 }
  - { offset: 0x42BB1, size: 0x8, addend: 0x0, symName: __ZN3std3sys3pal4unix4time8Timespec12sub_timespec17h30f7eda826aa365aE, symObjAddr: 0x43FC0, symBinAddr: 0x100030348, symSize: 0xF0 }
  - { offset: 0x42D43, size: 0x8, addend: 0x0, symName: __ZN3std3sys3pal4unix17decode_error_kind17hfb552d4473e8a503E, symObjAddr: 0x44130, symBinAddr: 0x100030438, symSize: 0x30 }
  - { offset: 0x42D5C, size: 0x8, addend: 0x0, symName: __ZN3std3sys3pal4unix14abort_internal17h9d11c57326ba8d13E, symObjAddr: 0x44160, symBinAddr: 0x100030468, symSize: 0xC }
  - { offset: 0x42DBD, size: 0x8, addend: 0x0, symName: __ZN3std3sys3pal6common14small_c_string24run_with_cstr_allocating17h00e51978e1a73330E, symObjAddr: 0x37AB8, symBinAddr: 0x1000496FC, symSize: 0xC4 }
  - { offset: 0x42F85, size: 0x8, addend: 0x0, symName: __ZN3std3sys3pal6common14small_c_string24run_with_cstr_allocating17hb1e9a451df5647a6E, symObjAddr: 0x37F4C, symBinAddr: 0x1000497C0, symSize: 0x9C }
  - { offset: 0x430F3, size: 0x8, addend: 0x0, symName: __ZN3std3sys3pal6common14small_c_string24run_with_cstr_allocating17hcfebbc01b19fa0c7E, symObjAddr: 0x380B4, symBinAddr: 0x10004985C, symSize: 0xAC }
  - { offset: 0x43304, size: 0x8, addend: 0x0, symName: '__ZN69_$LT$std..sys..os_str..bytes..Slice$u20$as$u20$core..fmt..Display$GT$3fmt17h99a3b255497359fcE', symObjAddr: 0x45694, symBinAddr: 0x10003080C, symSize: 0xA0 }
  - { offset: 0x4335F, size: 0x8, addend: 0x0, symName: '__ZN3std3sys9backtrace10_print_fmt28_$u7b$$u7b$closure$u7d$$u7d$17hba3c1662704bd734E', symObjAddr: 0x3864C, symBinAddr: 0x10002D3BC, symSize: 0x30 }
  - { offset: 0x43387, size: 0x8, addend: 0x0, symName: '__ZN3std3sys9backtrace10_print_fmt28_$u7b$$u7b$closure$u7d$$u7d$17hbd2c07eb9037f89eE', symObjAddr: 0x3867C, symBinAddr: 0x10002D3EC, symSize: 0x134 }
  - { offset: 0x43499, size: 0x8, addend: 0x0, symName: '__ZN3std3sys9backtrace10_print_fmt28_$u7b$$u7b$closure$u7d$$u7d$28_$u7b$$u7b$closure$u7d$$u7d$17hf4c703c391a929f7E', symObjAddr: 0x387B0, symBinAddr: 0x10002D520, symSize: 0x25C }
  - { offset: 0x436D3, size: 0x8, addend: 0x0, symName: __ZN3std3sys9backtrace4lock17ha6157251cdc4e250E, symObjAddr: 0x38360, symBinAddr: 0x10002D0D0, symSize: 0x70 }
  - { offset: 0x4381A, size: 0x8, addend: 0x0, symName: __ZN3std3sys9backtrace13BacktraceLock5print17h1df7364dde63dc75E, symObjAddr: 0x383D0, symBinAddr: 0x10002D140, symSize: 0x54 }
  - { offset: 0x43865, size: 0x8, addend: 0x0, symName: '__ZN98_$LT$std..sys..backtrace..BacktraceLock..print..DisplayBacktrace$u20$as$u20$core..fmt..Display$GT$3fmt17h6e25c13836847e70E', symObjAddr: 0x38424, symBinAddr: 0x10002D194, symSize: 0x228 }
  - { offset: 0x43DE7, size: 0x8, addend: 0x0, symName: __ZN3std3sys9backtrace26__rust_end_short_backtrace17h38d85099ddd107a3E, symObjAddr: 0x38A0C, symBinAddr: 0x10002D77C, symSize: 0xC }
  - { offset: 0x43E00, size: 0x8, addend: 0x0, symName: __ZN3std3sys9backtrace15output_filename17heab82475b93ae3beE, symObjAddr: 0x38A24, symBinAddr: 0x10002D788, symSize: 0xFC }
  - { offset: 0x43F78, size: 0x8, addend: 0x0, symName: '__ZN3std3sys11personality3gcc14find_eh_action28_$u7b$$u7b$closure$u7d$$u7d$17hf412a16d82c84faeE', symObjAddr: 0x45284, symBinAddr: 0x100030474, symSize: 0x18 }
  - { offset: 0x43F8B, size: 0x8, addend: 0x0, symName: '__ZN3std3sys11personality3gcc14find_eh_action28_$u7b$$u7b$closure$u7d$$u7d$17h2e095e7ec3ba8286E', symObjAddr: 0x4529C, symBinAddr: 0x10003048C, symSize: 0x18 }
  - { offset: 0x43FB9, size: 0x8, addend: 0x0, symName: _rust_eh_personality, symObjAddr: 0x452B4, symBinAddr: 0x1000304A4, symSize: 0x368 }
  - { offset: 0x442E3, size: 0x8, addend: 0x0, symName: __ZN3std3sys11personality5dwarf2eh19read_encoded_offset17h8de56f4ff0305713E, symObjAddr: 0x38210, symBinAddr: 0x10002CF80, symSize: 0x150 }
  - { offset: 0x4448D, size: 0x8, addend: 0x0, symName: '__ZN3std3sys4sync8once_box16OnceBox$LT$T$GT$10initialize17ha132e66d6e696846E', symObjAddr: 0x38C4C, symBinAddr: 0x100049908, symSize: 0xEC }
  - { offset: 0x44782, size: 0x8, addend: 0x0, symName: __ZN3std3sys4sync6rwlock5queue6RwLock21read_unlock_contended17h6ae8d0cb50688f7cE, symObjAddr: 0x46A7C, symBinAddr: 0x100049C5C, symSize: 0x54 }
  - { offset: 0x44905, size: 0x8, addend: 0x0, symName: __ZN3std3sys4sync6rwlock5queue6RwLock16unlock_contended17hb29fc977d284598fE, symObjAddr: 0x46AD0, symBinAddr: 0x100049CB0, symSize: 0x50 }
  - { offset: 0x449E0, size: 0x8, addend: 0x0, symName: __ZN3std3sys4sync6rwlock5queue6RwLock12unlock_queue17h276c3af95fecbfcfE, symObjAddr: 0x46C68, symBinAddr: 0x100030BD4, symSize: 0x23C }
  - { offset: 0x45198, size: 0x8, addend: 0x0, symName: __ZN3std3sys4sync6rwlock5queue9read_lock17h7abfeaf63b74c2acE, symObjAddr: 0x46784, symBinAddr: 0x100030BA8, symSize: 0x2C }
  - { offset: 0x4527E, size: 0x8, addend: 0x0, symName: __ZN3std3sys4sync4once5queue4Once4call17h6dcded8596bdefd3E, symObjAddr: 0x46308, symBinAddr: 0x100049AFC, symSize: 0x160 }
  - { offset: 0x4539D, size: 0x8, addend: 0x0, symName: __ZN3std3sys4sync4once5queue4wait17haf0c6cc357a42796E, symObjAddr: 0x46468, symBinAddr: 0x1000308AC, symSize: 0x1DC }
  - { offset: 0x458B9, size: 0x8, addend: 0x0, symName: '__ZN82_$LT$std..sys..sync..once..queue..WaiterQueue$u20$as$u20$core..ops..drop..Drop$GT$4drop17he2758873efcdcb14E', symObjAddr: 0x46644, symBinAddr: 0x100030A88, symSize: 0x120 }
  - { offset: 0x45B8F, size: 0x8, addend: 0x0, symName: '__ZN3std3sys12thread_local6native4lazy20Storage$LT$T$C$D$GT$10initialize17h396fc4d6bd3775f7E', symObjAddr: 0x46F6C, symBinAddr: 0x100049D00, symSize: 0xC0 }
  - { offset: 0x45D82, size: 0x8, addend: 0x0, symName: __ZN3std3sys12thread_local6native4lazy7destroy17h366cb6b392391073E, symObjAddr: 0x4702C, symBinAddr: 0x100030E10, symSize: 0x54 }
  - { offset: 0x45EEE, size: 0x8, addend: 0x0, symName: __ZN3std3sys12thread_local5guard5apple6enable9run_dtors17h723b80710d712ecdE, symObjAddr: 0x471C4, symBinAddr: 0x100030FA8, symSize: 0x158 }
  - { offset: 0x463F8, size: 0x8, addend: 0x0, symName: __ZN3std3sys12thread_local11destructors4list8register17h11c2792ab0e8518fE, symObjAddr: 0x47080, symBinAddr: 0x100030E64, symSize: 0x144 }
  - { offset: 0x46799, size: 0x8, addend: 0x0, symName: __ZN3std3sys6random19hashmap_random_keys17hbb3c4fac77face7cE, symObjAddr: 0x38B20, symBinAddr: 0x10002D884, symSize: 0x70 }
  - { offset: 0x46C0D, size: 0x8, addend: 0x0, symName: '__ZN58_$LT$std..io..error..Error$u20$as$u20$core..fmt..Debug$GT$3fmt17h831e4e9e5a448157E', symObjAddr: 0x26EFC, symBinAddr: 0x100029A38, symSize: 0x10 }
  - { offset: 0x46C3E, size: 0x8, addend: 0x0, symName: '__ZN3std2io5error83_$LT$impl$u20$core..fmt..Debug$u20$for$u20$std..io..error..repr_bitpacked..Repr$GT$3fmt17he4f137d34cdaf490E', symObjAddr: 0x271BC, symBinAddr: 0x100029A48, symSize: 0x294 }
  - { offset: 0x46E88, size: 0x8, addend: 0x0, symName: '__ZN60_$LT$std..io..error..Error$u20$as$u20$core..fmt..Display$GT$3fmt17h07ab10a95e6db3e5E', symObjAddr: 0x27450, symBinAddr: 0x100029CDC, symSize: 0x204 }
  - { offset: 0x470E6, size: 0x8, addend: 0x0, symName: '__ZN62_$LT$std..io..error..ErrorKind$u20$as$u20$core..fmt..Debug$GT$3fmt17h2dbed8983ef8700aE', symObjAddr: 0x3C174, symBinAddr: 0x10002F234, symSize: 0x34 }
  - { offset: 0x4715E, size: 0x8, addend: 0x0, symName: '__ZN80_$LT$std..io..Write..write_fmt..Adapter$LT$T$GT$$u20$as$u20$core..fmt..Write$GT$9write_str17h0109dcf90a9c2ce3E', symObjAddr: 0x2D0A4, symBinAddr: 0x10002B204, symSize: 0xD4 }
  - { offset: 0x4734E, size: 0x8, addend: 0x0, symName: '__ZN80_$LT$std..io..Write..write_fmt..Adapter$LT$T$GT$$u20$as$u20$core..fmt..Write$GT$9write_str17h687749933625c429E', symObjAddr: 0x2D24C, symBinAddr: 0x10002B2D8, symSize: 0x80 }
  - { offset: 0x47499, size: 0x8, addend: 0x0, symName: '__ZN80_$LT$std..io..Write..write_fmt..Adapter$LT$T$GT$$u20$as$u20$core..fmt..Write$GT$9write_str17h8d3e608beb172f79E', symObjAddr: 0x2D2CC, symBinAddr: 0x10002B358, symSize: 0x50 }
  - { offset: 0x474C2, size: 0x8, addend: 0x0, symName: '__ZN80_$LT$std..io..Write..write_fmt..Adapter$LT$T$GT$$u20$as$u20$core..fmt..Write$GT$9write_str17h9e268a28d520eb43E', symObjAddr: 0x2D31C, symBinAddr: 0x10002B3A8, symSize: 0xD4 }
  - { offset: 0x475FF, size: 0x8, addend: 0x0, symName: '__ZN80_$LT$std..io..Write..write_fmt..Adapter$LT$T$GT$$u20$as$u20$core..fmt..Write$GT$9write_str17he3054d1b6a42edc2E', symObjAddr: 0x2D3F0, symBinAddr: 0x10002B47C, symSize: 0x50 }
  - { offset: 0x4765E, size: 0x8, addend: 0x0, symName: __ZN3std2io5Write9write_all17h7713b80a44059b92E, symObjAddr: 0x2CAD4, symBinAddr: 0x10002ADF0, symSize: 0xA8 }
  - { offset: 0x47778, size: 0x8, addend: 0x0, symName: __ZN3std2io5Write9write_fmt17ha6aef79e4d579037E, symObjAddr: 0x2CD38, symBinAddr: 0x10002AE98, symSize: 0x124 }
  - { offset: 0x4798A, size: 0x8, addend: 0x0, symName: __ZN3std2io5Write9write_fmt17hae41df998e40f636E, symObjAddr: 0x2CE5C, symBinAddr: 0x10002AFBC, symSize: 0x124 }
  - { offset: 0x47B9C, size: 0x8, addend: 0x0, symName: __ZN3std2io5Write9write_fmt17hd4c273f34c4c0a33E, symObjAddr: 0x2CF80, symBinAddr: 0x10002B0E0, symSize: 0x124 }
  - { offset: 0x47E1D, size: 0x8, addend: 0x0, symName: '__ZN3std2io5impls74_$LT$impl$u20$std..io..Write$u20$for$u20$alloc..vec..Vec$LT$u8$C$A$GT$$GT$9write_all17h280484049090bd38E', symObjAddr: 0x27750, symBinAddr: 0x100029EE0, symSize: 0x80 }
  - { offset: 0x47FFD, size: 0x8, addend: 0x0, symName: '__ZN3std2io8buffered9bufwriter18BufWriter$LT$W$GT$9flush_buf17hcef3ccdce2147587E', symObjAddr: 0x26414, symBinAddr: 0x100029834, symSize: 0x204 }
  - { offset: 0x48505, size: 0x8, addend: 0x0, symName: '__ZN3std2io8buffered9bufwriter18BufWriter$LT$W$GT$14write_all_cold17h0d10b67065dd7e68E', symObjAddr: 0x267A4, symBinAddr: 0x1000494A8, symSize: 0x120 }
  - { offset: 0x48937, size: 0x8, addend: 0x0, symName: __ZN3std2io5stdio5stdin17h08240977d6defaceE, symObjAddr: 0x2828C, symBinAddr: 0x100029F60, symSize: 0x3C }
  - { offset: 0x4896F, size: 0x8, addend: 0x0, symName: __ZN3std2io5stdio5stdin17h08240977d6defaceE, symObjAddr: 0x2828C, symBinAddr: 0x100029F60, symSize: 0x3C }
  - { offset: 0x48984, size: 0x8, addend: 0x0, symName: __ZN3std2io5stdio5stdin17h08240977d6defaceE, symObjAddr: 0x2828C, symBinAddr: 0x100029F60, symSize: 0x3C }
  - { offset: 0x48998, size: 0x8, addend: 0x0, symName: __ZN3std2io5stdio5stdin17h08240977d6defaceE, symObjAddr: 0x2828C, symBinAddr: 0x100029F60, symSize: 0x3C }
  - { offset: 0x489AD, size: 0x8, addend: 0x0, symName: __ZN3std2io5stdio5stdin17h08240977d6defaceE, symObjAddr: 0x2828C, symBinAddr: 0x100029F60, symSize: 0x3C }
  - { offset: 0x489C2, size: 0x8, addend: 0x0, symName: __ZN3std2io5stdio5stdin17h08240977d6defaceE, symObjAddr: 0x2828C, symBinAddr: 0x100029F60, symSize: 0x3C }
  - { offset: 0x489D6, size: 0x8, addend: 0x0, symName: __ZN3std2io5stdio5stdin17h08240977d6defaceE, symObjAddr: 0x2828C, symBinAddr: 0x100029F60, symSize: 0x3C }
  - { offset: 0x489F4, size: 0x8, addend: 0x0, symName: __ZN3std2io5stdio5Stdin4lock17h16d7be267c665fb6E, symObjAddr: 0x282C8, symBinAddr: 0x100029F9C, symSize: 0x68 }
  - { offset: 0x48B57, size: 0x8, addend: 0x0, symName: '__ZN62_$LT$std..io..stdio..StdinLock$u20$as$u20$std..io..BufRead$GT$9read_line17hfe00d578c1e1cf7fE', symObjAddr: 0x29A40, symBinAddr: 0x10002A004, symSize: 0xC4 }
  - { offset: 0x48D91, size: 0x8, addend: 0x0, symName: __ZN3std2io5stdio6stdout17h1a8df85c44c21af3E, symObjAddr: 0x29B3C, symBinAddr: 0x10002A0C8, symSize: 0x3C }
  - { offset: 0x48DC2, size: 0x8, addend: 0x0, symName: __ZN3std2io5stdio6stdout17h1a8df85c44c21af3E, symObjAddr: 0x29B3C, symBinAddr: 0x10002A0C8, symSize: 0x3C }
  - { offset: 0x48DD7, size: 0x8, addend: 0x0, symName: __ZN3std2io5stdio6stdout17h1a8df85c44c21af3E, symObjAddr: 0x29B3C, symBinAddr: 0x10002A0C8, symSize: 0x3C }
  - { offset: 0x48DEB, size: 0x8, addend: 0x0, symName: __ZN3std2io5stdio6stdout17h1a8df85c44c21af3E, symObjAddr: 0x29B3C, symBinAddr: 0x10002A0C8, symSize: 0x3C }
  - { offset: 0x48E00, size: 0x8, addend: 0x0, symName: __ZN3std2io5stdio6stdout17h1a8df85c44c21af3E, symObjAddr: 0x29B3C, symBinAddr: 0x10002A0C8, symSize: 0x3C }
  - { offset: 0x48E15, size: 0x8, addend: 0x0, symName: __ZN3std2io5stdio6stdout17h1a8df85c44c21af3E, symObjAddr: 0x29B3C, symBinAddr: 0x10002A0C8, symSize: 0x3C }
  - { offset: 0x48E29, size: 0x8, addend: 0x0, symName: __ZN3std2io5stdio6stdout17h1a8df85c44c21af3E, symObjAddr: 0x29B3C, symBinAddr: 0x10002A0C8, symSize: 0x3C }
  - { offset: 0x48E47, size: 0x8, addend: 0x0, symName: '__ZN61_$LT$$RF$std..io..stdio..Stdout$u20$as$u20$std..io..Write$GT$5flush17h066c7453b2b03659E', symObjAddr: 0x29F7C, symBinAddr: 0x10002A128, symSize: 0xBC }
  - { offset: 0x49287, size: 0x8, addend: 0x0, symName: '__ZN61_$LT$$RF$std..io..stdio..Stdout$u20$as$u20$std..io..Write$GT$9write_fmt17h1b86564e61232c5bE', symObjAddr: 0x2A178, symBinAddr: 0x10002A1E4, symSize: 0x18C }
  - { offset: 0x4966B, size: 0x8, addend: 0x0, symName: '__ZN57_$LT$std..io..stdio..Stdout$u20$as$u20$std..io..Write$GT$5flush17hf16e58f0eec50b80E', symObjAddr: 0x29C78, symBinAddr: 0x10002A104, symSize: 0x24 }
  - { offset: 0x496A5, size: 0x8, addend: 0x0, symName: '__ZN61_$LT$std..io..stdio..StdoutLock$u20$as$u20$std..io..Write$GT$9write_all17h5b169e2910bd0c16E', symObjAddr: 0x2A63C, symBinAddr: 0x10002A370, symSize: 0x258 }
  - { offset: 0x49D52, size: 0x8, addend: 0x0, symName: __ZN3std2io5stdio6Stderr4lock17h1b68cecd2f2d41b5E, symObjAddr: 0x2ABA4, symBinAddr: 0x10002A5C8, symSize: 0xF0 }
  - { offset: 0x4A01C, size: 0x8, addend: 0x0, symName: '__ZN61_$LT$$RF$std..io..stdio..Stderr$u20$as$u20$std..io..Write$GT$9write_fmt17hce344aed64ff222aE', symObjAddr: 0x2B31C, symBinAddr: 0x10002A6B8, symSize: 0x18C }
  - { offset: 0x4A400, size: 0x8, addend: 0x0, symName: '__ZN61_$LT$std..io..stdio..StderrLock$u20$as$u20$std..io..Write$GT$9write_all17h8816b4d549cf6c8eE', symObjAddr: 0x2B6AC, symBinAddr: 0x10002A844, symSize: 0x100 }
  - { offset: 0x4A7A0, size: 0x8, addend: 0x0, symName: __ZN3std2io5stdio22try_set_output_capture17h16c85eef385ec3d1E, symObjAddr: 0x2B950, symBinAddr: 0x10002A944, symSize: 0xF4 }
  - { offset: 0x4A9EF, size: 0x8, addend: 0x0, symName: __ZN3std2io5stdio31print_to_buffer_if_capture_used17hf2fa32501fb3e018E, symObjAddr: 0x2BA44, symBinAddr: 0x10002AA38, symSize: 0x20C }
  - { offset: 0x4B0F5, size: 0x8, addend: 0x0, symName: __ZN3std2io5stdio6_print17h91e586dc5ea11662E, symObjAddr: 0x2BD20, symBinAddr: 0x10002AC44, symSize: 0xE4 }
  - { offset: 0x4B1F9, size: 0x8, addend: 0x0, symName: __ZN3std2io5stdio7_eprint17hc45f0fb6947c71c9E, symObjAddr: 0x2BE04, symBinAddr: 0x10002AD28, symSize: 0xC8 }
  - { offset: 0x4B299, size: 0x8, addend: 0x0, symName: __ZN3std2io10read_until17hb4e91e1ca5e507aeE, symObjAddr: 0x2D440, symBinAddr: 0x10002B4CC, symSize: 0x338 }
  - { offset: 0x4B9F7, size: 0x8, addend: 0x0, symName: '__ZN3std4sync6poison4once4Once15call_once_force28_$u7b$$u7b$closure$u7d$$u7d$17h0057fcc17bb0e86cE', symObjAddr: 0x36674, symBinAddr: 0x10002CDA4, symSize: 0x60 }
  - { offset: 0x4BAD7, size: 0x8, addend: 0x0, symName: '__ZN3std4sync6poison4once4Once15call_once_force28_$u7b$$u7b$closure$u7d$$u7d$17hb2cf1c2bb88dd9dfE', symObjAddr: 0x366D4, symBinAddr: 0x10002CE04, symSize: 0x7C }
  - { offset: 0x4BC21, size: 0x8, addend: 0x0, symName: '__ZN3std4sync6poison4once4Once15call_once_force28_$u7b$$u7b$closure$u7d$$u7d$17heb649a269aa4cb2bE', symObjAddr: 0x36750, symBinAddr: 0x10002CE80, symSize: 0x80 }
  - { offset: 0x4BD8D, size: 0x8, addend: 0x0, symName: '__ZN3std4sync6poison4once4Once9call_once28_$u7b$$u7b$closure$u7d$$u7d$17h6cd3671298567da4E', symObjAddr: 0x36418, symBinAddr: 0x10002CB48, symSize: 0x25C }
  - { offset: 0x4C847, size: 0x8, addend: 0x0, symName: '__ZN3std4sync9once_lock17OnceLock$LT$T$GT$10initialize17h150d9cf8dd414d08E', symObjAddr: 0x371FC, symBinAddr: 0x1000495D4, symSize: 0x64 }
  - { offset: 0x4C872, size: 0x8, addend: 0x0, symName: '__ZN3std4sync9once_lock17OnceLock$LT$T$GT$10initialize17h150d9cf8dd414d08E', symObjAddr: 0x371FC, symBinAddr: 0x1000495D4, symSize: 0x64 }
  - { offset: 0x4C886, size: 0x8, addend: 0x0, symName: '__ZN3std4sync9once_lock17OnceLock$LT$T$GT$10initialize17h150d9cf8dd414d08E', symObjAddr: 0x371FC, symBinAddr: 0x1000495D4, symSize: 0x64 }
  - { offset: 0x4C89A, size: 0x8, addend: 0x0, symName: '__ZN3std4sync9once_lock17OnceLock$LT$T$GT$10initialize17h150d9cf8dd414d08E', symObjAddr: 0x371FC, symBinAddr: 0x1000495D4, symSize: 0x64 }
  - { offset: 0x4C8AF, size: 0x8, addend: 0x0, symName: '__ZN3std4sync9once_lock17OnceLock$LT$T$GT$10initialize17ha9eae27b8887c6b3E', symObjAddr: 0x37260, symBinAddr: 0x100049638, symSize: 0x5C }
  - { offset: 0x4C8DA, size: 0x8, addend: 0x0, symName: '__ZN3std4sync9once_lock17OnceLock$LT$T$GT$10initialize17ha9eae27b8887c6b3E', symObjAddr: 0x37260, symBinAddr: 0x100049638, symSize: 0x5C }
  - { offset: 0x4C8EE, size: 0x8, addend: 0x0, symName: '__ZN3std4sync9once_lock17OnceLock$LT$T$GT$10initialize17ha9eae27b8887c6b3E', symObjAddr: 0x37260, symBinAddr: 0x100049638, symSize: 0x5C }
  - { offset: 0x4C902, size: 0x8, addend: 0x0, symName: '__ZN3std4sync9once_lock17OnceLock$LT$T$GT$10initialize17ha9eae27b8887c6b3E', symObjAddr: 0x37260, symBinAddr: 0x100049638, symSize: 0x5C }
  - { offset: 0x4C917, size: 0x8, addend: 0x0, symName: '__ZN3std4sync9once_lock17OnceLock$LT$T$GT$10initialize17he8f42246406b5e9dE', symObjAddr: 0x372BC, symBinAddr: 0x100049694, symSize: 0x68 }
  - { offset: 0x4C942, size: 0x8, addend: 0x0, symName: '__ZN3std4sync9once_lock17OnceLock$LT$T$GT$10initialize17he8f42246406b5e9dE', symObjAddr: 0x372BC, symBinAddr: 0x100049694, symSize: 0x68 }
  - { offset: 0x4C956, size: 0x8, addend: 0x0, symName: '__ZN3std4sync9once_lock17OnceLock$LT$T$GT$10initialize17he8f42246406b5e9dE', symObjAddr: 0x372BC, symBinAddr: 0x100049694, symSize: 0x68 }
  - { offset: 0x4C96A, size: 0x8, addend: 0x0, symName: '__ZN3std4sync9once_lock17OnceLock$LT$T$GT$10initialize17he8f42246406b5e9dE', symObjAddr: 0x372BC, symBinAddr: 0x100049694, symSize: 0x68 }
  - { offset: 0x4CB4B, size: 0x8, addend: 0x0, symName: __ZN3std6thread7current7current17h762f5277430ed35dE, symObjAddr: 0x1FC50, symBinAddr: 0x100028D64, symSize: 0x60 }
  - { offset: 0x4CC4A, size: 0x8, addend: 0x0, symName: __ZN3std6thread7current12init_current17h79f433ac8eb4e2b9E, symObjAddr: 0x1FCB0, symBinAddr: 0x1000492F8, symSize: 0x178 }
  - { offset: 0x4D093, size: 0x8, addend: 0x0, symName: __ZN3std6thread6Thread9new_inner17h5f07c0795cb40719E, symObjAddr: 0x20C30, symBinAddr: 0x100028DFC, symSize: 0x148 }
  - { offset: 0x4D33F, size: 0x8, addend: 0x0, symName: __ZN3std6thread6Thread4name17h983bbbe03c600667E, symObjAddr: 0x20E84, symBinAddr: 0x100028F44, symSize: 0x44 }
  - { offset: 0x4D582, size: 0x8, addend: 0x0, symName: '__ZN68_$LT$std..thread..local..AccessError$u20$as$u20$core..fmt..Debug$GT$3fmt17hc7dab8a12ed8827eE', symObjAddr: 0x20450, symBinAddr: 0x100028DC4, symSize: 0x38 }
  - { offset: 0x4D5A7, size: 0x8, addend: 0x0, symName: __ZN3std6thread8ThreadId3new9exhausted17h058cd01d4ed54e90E, symObjAddr: 0x20AB0, symBinAddr: 0x100049470, symSize: 0x38 }
  - { offset: 0x4D6BA, size: 0x8, addend: 0x0, symName: __ZN3std12backtrace_rs9symbolize5gimli7Context3new17hcb29171165e0fe3bE, symObjAddr: 0x485DC, symBinAddr: 0x10003118C, symSize: 0x220C }
  - { offset: 0x519DF, size: 0x8, addend: 0x0, symName: __ZN3std12backtrace_rs9symbolize5gimli7Context11find_frames17h5da6dfec47381ef0E, symObjAddr: 0x4A7E8, symBinAddr: 0x100033398, symSize: 0x3A8 }
  - { offset: 0x51E33, size: 0x8, addend: 0x0, symName: __ZN3std12backtrace_rs9symbolize5gimli5macho6Object5parse17h58dc6f0c4bf3101bE, symObjAddr: 0x4D544, symBinAddr: 0x1000360C4, symSize: 0xBE0 }
  - { offset: 0x53BCA, size: 0x8, addend: 0x0, symName: __ZN3std12backtrace_rs9symbolize5gimli5macho6Object7section17haf561257ba38601cE, symObjAddr: 0x4E124, symBinAddr: 0x100036CA4, symSize: 0x3A0 }
  - { offset: 0x54083, size: 0x8, addend: 0x0, symName: __ZN3std12backtrace_rs9symbolize5gimli5macho11find_header17had7a9a4df16259edE, symObjAddr: 0x4D370, symBinAddr: 0x100035EF0, symSize: 0x1D4 }
  - { offset: 0x5477F, size: 0x8, addend: 0x0, symName: __ZN3std12backtrace_rs9symbolize5gimli4mmap17hea8a835dd2b88f16E, symObjAddr: 0x4AB90, symBinAddr: 0x100033740, symSize: 0x160 }
  - { offset: 0x54D2F, size: 0x8, addend: 0x0, symName: __ZN3std12backtrace_rs9symbolize5gimli7resolve17haaa3815f71ad6cc3E, symObjAddr: 0x4ACF0, symBinAddr: 0x1000338A0, symSize: 0x2650 }
  - { offset: 0x5AD11, size: 0x8, addend: 0x0, symName: __ZN3std12backtrace_rs9symbolize6Symbol4name17hb88469d82be3f352E, symObjAddr: 0x3B800, symBinAddr: 0x10002EB80, symSize: 0xE4 }
  - { offset: 0x5AE47, size: 0x8, addend: 0x0, symName: '__ZN79_$LT$std..backtrace_rs..symbolize..SymbolName$u20$as$u20$core..fmt..Display$GT$3fmt17h54752f477994ee81E', symObjAddr: 0x3BA24, symBinAddr: 0x10002EC64, symSize: 0x100 }
  - { offset: 0x5AF7F, size: 0x8, addend: 0x0, symName: __ZN3std12backtrace_rs9backtrace9libunwind5trace8trace_fn17h9a6328cf054c9f17E, symObjAddr: 0x48594, symBinAddr: 0x100031144, symSize: 0x48 }
  - { offset: 0x5B052, size: 0x8, addend: 0x0, symName: __ZN3std12backtrace_rs5print17BacktraceFrameFmt21print_raw_with_column17hbcb9bd75551dd587E, symObjAddr: 0x3BC24, symBinAddr: 0x10002ED64, symSize: 0x4D0 }
  - { offset: 0x5B2E2, size: 0x8, addend: 0x0, symName: __ZN3std2rt19lang_start_internal17h5f91760815528aa2E, symObjAddr: 0x1F0E4, symBinAddr: 0x100028534, symSize: 0x830 }
  - { offset: 0x5C273, size: 0x8, addend: 0x0, symName: __ZN3std5panic19get_backtrace_style17h35ce748393ff9335E, symObjAddr: 0x319C8, symBinAddr: 0x10002B804, symSize: 0x10C }
  - { offset: 0x5C291, size: 0x8, addend: 0x0, symName: __ZN3std5panic19get_backtrace_style17h35ce748393ff9335E, symObjAddr: 0x319C8, symBinAddr: 0x10002B804, symSize: 0x10C }
  - { offset: 0x5C2A6, size: 0x8, addend: 0x0, symName: __ZN3std5panic19get_backtrace_style17h35ce748393ff9335E, symObjAddr: 0x319C8, symBinAddr: 0x10002B804, symSize: 0x10C }
  - { offset: 0x5C6C8, size: 0x8, addend: 0x0, symName: __ZN3std4time7Instant3now17h2e91652f409cdb52E, symObjAddr: 0x37324, symBinAddr: 0x10002CF00, symSize: 0x14 }
  - { offset: 0x5C6F1, size: 0x8, addend: 0x0, symName: __ZN3std4time7Instant7elapsed17hde826268f6678cfeE, symObjAddr: 0x373D4, symBinAddr: 0x10002CF14, symSize: 0x6C }
  - { offset: 0x5C7CC, size: 0x8, addend: 0x0, symName: __ZN3std3env11current_dir17haf8507926c80f1caE, symObjAddr: 0x221C0, symBinAddr: 0x100028F88, symSize: 0x1D0 }
  - { offset: 0x5CB4D, size: 0x8, addend: 0x0, symName: __ZN3std3env7_var_os17hf10ceadcd1b912a6E, symObjAddr: 0x22ABC, symBinAddr: 0x100029158, symSize: 0x160 }
  - { offset: 0x5CDDA, size: 0x8, addend: 0x0, symName: __ZN3std3env4args17hf0e00db799d5e0e0E, symObjAddr: 0x232BC, symBinAddr: 0x1000292B8, symSize: 0x10 }
  - { offset: 0x5CDF4, size: 0x8, addend: 0x0, symName: __ZN3std3env7args_os17h334a4fb659aa8a8cE, symObjAddr: 0x232CC, symBinAddr: 0x1000292C8, symSize: 0x208 }
  - { offset: 0x5D2C2, size: 0x8, addend: 0x0, symName: '__ZN73_$LT$std..env..Args$u20$as$u20$core..iter..traits..iterator..Iterator$GT$4next17h0e6db938a31de672E', symObjAddr: 0x234D4, symBinAddr: 0x1000294D0, symSize: 0xE8 }
  - { offset: 0x5D4FE, size: 0x8, addend: 0x0, symName: '__ZN73_$LT$std..env..Args$u20$as$u20$core..iter..traits..iterator..Iterator$GT$9size_hint17h0297a25729c7180eE', symObjAddr: 0x235BC, symBinAddr: 0x1000295B8, symSize: 0x38 }
  - { offset: 0x5D5CD, size: 0x8, addend: 0x0, symName: __ZN3std2fs11OpenOptions5_open17h3bff81b1475da90cE, symObjAddr: 0x25000, symBinAddr: 0x1000295F0, symSize: 0x244 }
  - { offset: 0x5D7B6, size: 0x8, addend: 0x0, symName: __ZN3std5alloc24default_alloc_error_hook17h51501e062971cbd1E, symObjAddr: 0x39EE8, symBinAddr: 0x10002D8F4, symSize: 0x13C }
  - { offset: 0x5D9F9, size: 0x8, addend: 0x0, symName: ___rdl_alloc, symObjAddr: 0x3A024, symBinAddr: 0x10002DA30, symSize: 0x6C }
  - { offset: 0x5DA8B, size: 0x8, addend: 0x0, symName: ___rdl_dealloc, symObjAddr: 0x3A090, symBinAddr: 0x10002DA9C, symSize: 0x10 }
  - { offset: 0x5DABB, size: 0x8, addend: 0x0, symName: ___rdl_realloc, symObjAddr: 0x3A0A0, symBinAddr: 0x10002DAAC, symSize: 0xB0 }
  - { offset: 0x5DBB9, size: 0x8, addend: 0x0, symName: ___rdl_alloc_zeroed, symObjAddr: 0x3A150, symBinAddr: 0x10002DB5C, symSize: 0x90 }
  - { offset: 0x5DC6D, size: 0x8, addend: 0x0, symName: __ZN3std5alloc8rust_oom17h688c7a6ff0ff2a04E, symObjAddr: 0x484A0, symBinAddr: 0x100031100, symSize: 0x2C }
  - { offset: 0x5DCBC, size: 0x8, addend: 0x0, symName: ___rg_oom, symObjAddr: 0x484CC, symBinAddr: 0x10003112C, symSize: 0x18 }
  - { offset: 0x5DD6C, size: 0x8, addend: 0x0, symName: '__ZN9addr2line8function17Function$LT$R$GT$14parse_children17hde6185226aa4bed3E', symObjAddr: 0x1DE14, symBinAddr: 0x1000272C8, symSize: 0x10A4 }
  - { offset: 0x5F21D, size: 0x8, addend: 0x0, symName: __ZN9addr2line8function10name_entry17h167ec9fef242540bE, symObjAddr: 0x1DAAC, symBinAddr: 0x100026F60, symSize: 0x368 }
  - { offset: 0x5F61D, size: 0x8, addend: 0x0, symName: __ZN9addr2line8function9name_attr17hcc4d726c07aff866E, symObjAddr: 0x1EEB8, symBinAddr: 0x10002836C, symSize: 0x1C8 }
  - { offset: 0x5F7A4, size: 0x8, addend: 0x0, symName: __ZN9addr2line11render_file17hcf09afdcf2e7d9a6E, symObjAddr: 0x19EBC, symBinAddr: 0x100023370, symSize: 0x4C0 }
  - { offset: 0x60035, size: 0x8, addend: 0x0, symName: '__ZN9addr2line16Context$LT$R$GT$9find_unit17h411a1dc3d9e5296eE', symObjAddr: 0x1A37C, symBinAddr: 0x100023830, symSize: 0x168 }
  - { offset: 0x6022C, size: 0x8, addend: 0x0, symName: '__ZN9addr2line16ResUnit$LT$R$GT$25find_function_or_location17h2942d2d40cb21dbcE', symObjAddr: 0x1A4E4, symBinAddr: 0x100023998, symSize: 0x3B4 }
  - { offset: 0x6064D, size: 0x8, addend: 0x0, symName: '__ZN9addr2line16ResUnit$LT$R$GT$25find_function_or_location28_$u7b$$u7b$closure$u7d$$u7d$17h8e051fcec327e5a4E', symObjAddr: 0x1A898, symBinAddr: 0x100023D4C, symSize: 0x1664 }
  - { offset: 0x630FB, size: 0x8, addend: 0x0, symName: '__ZN9addr2line18FrameIter$LT$R$GT$4next17h796233074eafc71cE', symObjAddr: 0x1BEFC, symBinAddr: 0x1000253B0, symSize: 0x2FC }
  - { offset: 0x635B6, size: 0x8, addend: 0x0, symName: '__ZN9addr2line30LoopingLookup$LT$T$C$L$C$F$GT$10new_lookup17h3c45f0cf52cf3c29E', symObjAddr: 0x1C1F8, symBinAddr: 0x1000256AC, symSize: 0x40C }
  - { offset: 0x63A9B, size: 0x8, addend: 0x0, symName: __ZN9addr2line5Lines5parse17h72a77ae55fe77308E, symObjAddr: 0x1C604, symBinAddr: 0x100025AB8, symSize: 0x14A8 }
  - { offset: 0x6675C, size: 0x8, addend: 0x0, symName: __ZN5gimli4read6reader6Reader11read_offset17h850656ff59cfae29E, symObjAddr: 0x17A1C, symBinAddr: 0x1000214CC, symSize: 0xBC }
  - { offset: 0x66996, size: 0x8, addend: 0x0, symName: __ZN5gimli4read6reader6Reader12read_sleb12817h80ef41f40dcdce5eE, symObjAddr: 0x17AD8, symBinAddr: 0x100021588, symSize: 0x21C }
  - { offset: 0x66A82, size: 0x8, addend: 0x0, symName: __ZN5gimli4read6reader6Reader12read_uleb12817ha5def26e7a87e851E, symObjAddr: 0x17CF4, symBinAddr: 0x1000217A4, symSize: 0xB0 }
  - { offset: 0x66B36, size: 0x8, addend: 0x0, symName: __ZN5gimli4read6reader6Reader17read_sized_offset17hdb8622688fdf4d51E, symObjAddr: 0x17DA4, symBinAddr: 0x100021854, symSize: 0xEC }
  - { offset: 0x66F5F, size: 0x8, addend: 0x0, symName: '__ZN5gimli4read4unit32AttributeValue$LT$R$C$Offset$GT$11udata_value17hb14a49ba40621992E', symObjAddr: 0x14EE8, symBinAddr: 0x10001E998, symSize: 0x90 }
  - { offset: 0x66FB4, size: 0x8, addend: 0x0, symName: __ZN5gimli4read4unit15parse_attribute17hfce471934023f00fE, symObjAddr: 0x131C8, symBinAddr: 0x10001CC78, symSize: 0xF70 }
  - { offset: 0x69C7A, size: 0x8, addend: 0x0, symName: __ZN5gimli4read4unit15skip_attributes17h3b83ebe016339b58E, symObjAddr: 0x14138, symBinAddr: 0x10001DBE8, symSize: 0x520 }
  - { offset: 0x6A68B, size: 0x8, addend: 0x0, symName: '__ZN5gimli4read4unit18Attribute$LT$R$GT$5value17h33dd726d5d83f96bE', symObjAddr: 0x14658, symBinAddr: 0x10001E108, symSize: 0x5DC }
  - { offset: 0x6ABEA, size: 0x8, addend: 0x0, symName: '__ZN5gimli4read4unit22EntriesCursor$LT$R$GT$10next_entry17hdf7f0e2785b37958E', symObjAddr: 0x14C34, symBinAddr: 0x10001E6E4, symSize: 0x2B4 }
  - { offset: 0x6B152, size: 0x8, addend: 0x0, symName: '__ZN5gimli4read4unit33DebugInfoUnitHeadersIter$LT$R$GT$4next17h93242ffae35da06cE', symObjAddr: 0x14F78, symBinAddr: 0x10001EA28, symSize: 0x4D4 }
  - { offset: 0x6C2B7, size: 0x8, addend: 0x0, symName: '__ZN90_$LT$gimli..read..unit..AttributeValue$LT$R$C$Offset$GT$$u20$as$u20$core..clone..Clone$GT$5clone17h9732af948169f784E', symObjAddr: 0x19934, symBinAddr: 0x100022EA0, symSize: 0x68 }
  - { offset: 0x6C3CB, size: 0x8, addend: 0x0, symName: __ZN5gimli4read4line13parse_file_v517h590cae061277be4cE, symObjAddr: 0x12080, symBinAddr: 0x10001BB30, symSize: 0x278 }
  - { offset: 0x6C541, size: 0x8, addend: 0x0, symName: __ZN5gimli4read4line15FileEntryFormat5parse17hf011302f2bc629f6E, symObjAddr: 0x122F8, symBinAddr: 0x10001BDA8, symSize: 0x370 }
  - { offset: 0x6CD63, size: 0x8, addend: 0x0, symName: __ZN5gimli4read4line15parse_attribute17h348343734ec59cc5E, symObjAddr: 0x12668, symBinAddr: 0x10001C118, symSize: 0x868 }
  - { offset: 0x6E4F6, size: 0x8, addend: 0x0, symName: __ZN5gimli4read4line18parse_directory_v517h4b2c642c7ea66aebE, symObjAddr: 0x12ED0, symBinAddr: 0x10001C980, symSize: 0xE8 }
  - { offset: 0x6E585, size: 0x8, addend: 0x0, symName: '__ZN5gimli4read4line27FileEntry$LT$R$C$Offset$GT$5parse17hc7653d33f50298ccE', symObjAddr: 0x12FB8, symBinAddr: 0x10001CA68, symSize: 0x210 }
  - { offset: 0x6E860, size: 0x8, addend: 0x0, symName: '__ZN93_$LT$gimli..read..line..LineProgramHeader$LT$R$C$Offset$GT$$u20$as$u20$core..clone..Clone$GT$5clone17h9f7da5110b14ea7fE', symObjAddr: 0x1999C, symBinAddr: 0x100022F08, symSize: 0x468 }
  - { offset: 0x6F444, size: 0x8, addend: 0x0, symName: '__ZN5gimli4read5dwarf14Dwarf$LT$R$GT$11attr_string17hc9ef448b811739bbE', symObjAddr: 0x17154, symBinAddr: 0x100020C04, symSize: 0x1E8 }
  - { offset: 0x6FC50, size: 0x8, addend: 0x0, symName: '__ZN5gimli4read5dwarf13Unit$LT$R$GT$3new17h50b7467c995651f8E', symObjAddr: 0x1544C, symBinAddr: 0x10001EEFC, symSize: 0x1D08 }
  - { offset: 0x73764, size: 0x8, addend: 0x0, symName: '__ZN5gimli4read5index18UnitIndex$LT$R$GT$5parse17haa9ab30f9a0bf4eaE', symObjAddr: 0x1733C, symBinAddr: 0x100020DEC, symSize: 0x6E0 }
  - { offset: 0x73D39, size: 0x8, addend: 0x0, symName: '__ZN5gimli4read7aranges30ArangeHeader$LT$R$C$Offset$GT$5parse17hf19a2e7a2068f89eE', symObjAddr: 0x17E90, symBinAddr: 0x100021940, symSize: 0x29C }
  - { offset: 0x7457A, size: 0x8, addend: 0x0, symName: '__ZN5gimli4read8rnglists20RngListIter$LT$R$GT$4next17h688fad0081f63134E', symObjAddr: 0x1812C, symBinAddr: 0x100021BDC, symSize: 0xC3C }
  - { offset: 0x773F5, size: 0x8, addend: 0x0, symName: __ZN6object4read7archive13ArchiveMember5parse17h6de71010798f1df5E, symObjAddr: 0x19224, symBinAddr: 0x100022834, symSize: 0x41C }
  - { offset: 0x77F79, size: 0x8, addend: 0x0, symName: __ZN6object4read7archive23parse_bsd_extended_name17h550a267101d0034eE, symObjAddr: 0x19640, symBinAddr: 0x100022C50, symSize: 0x250 }
  - { offset: 0x78D3B, size: 0x8, addend: 0x0, symName: _OUTLINED_FUNCTION_0, symObjAddr: 0x4E4C4, symBinAddr: 0x100037044, symSize: 0x10 }
  - { offset: 0x78D53, size: 0x8, addend: 0x0, symName: _OUTLINED_FUNCTION_1, symObjAddr: 0x4E4D4, symBinAddr: 0x100037054, symSize: 0x24 }
  - { offset: 0x78D6B, size: 0x8, addend: 0x0, symName: _OUTLINED_FUNCTION_2, symObjAddr: 0x4E4F8, symBinAddr: 0x100037078, symSize: 0x8 }
  - { offset: 0x78D83, size: 0x8, addend: 0x0, symName: _OUTLINED_FUNCTION_3, symObjAddr: 0x4E500, symBinAddr: 0x100037080, symSize: 0x8 }
  - { offset: 0x78D9B, size: 0x8, addend: 0x0, symName: _OUTLINED_FUNCTION_4, symObjAddr: 0x4E508, symBinAddr: 0x100037088, symSize: 0xC }
  - { offset: 0x78DB3, size: 0x8, addend: 0x0, symName: _OUTLINED_FUNCTION_5, symObjAddr: 0x4E514, symBinAddr: 0x100037094, symSize: 0x8 }
  - { offset: 0x78DCB, size: 0x8, addend: 0x0, symName: _OUTLINED_FUNCTION_6, symObjAddr: 0x4E51C, symBinAddr: 0x10003709C, symSize: 0x8 }
  - { offset: 0x78DE3, size: 0x8, addend: 0x0, symName: _OUTLINED_FUNCTION_7, symObjAddr: 0x4E524, symBinAddr: 0x1000370A4, symSize: 0x8 }
  - { offset: 0x78E18, size: 0x8, addend: 0x0, symName: '__ZN4core3ptr49drop_in_place$LT$panic_unwind..imp..Exception$GT$17h3f33ec87f420cd94E', symObjAddr: 0x0, symBinAddr: 0x1000370AC, symSize: 0x78 }
  - { offset: 0x78E3C, size: 0x8, addend: 0x0, symName: '__ZN4core3ptr49drop_in_place$LT$panic_unwind..imp..Exception$GT$17h3f33ec87f420cd94E', symObjAddr: 0x0, symBinAddr: 0x1000370AC, symSize: 0x78 }
  - { offset: 0x78F41, size: 0x8, addend: 0x0, symName: '__ZN4core3ptr74drop_in_place$LT$alloc..boxed..Box$LT$panic_unwind..imp..Exception$GT$$GT$17h7f6639e1dc5aa73aE', symObjAddr: 0x78, symBinAddr: 0x100037124, symSize: 0x8C }
  - { offset: 0x79204, size: 0x8, addend: 0x0, symName: __ZN12panic_unwind3imp5panic17exception_cleanup17h18d9ac3469d07443E, symObjAddr: 0x214, symBinAddr: 0x1000372C0, symSize: 0x18 }
  - { offset: 0x79220, size: 0x8, addend: 0x0, symName: ___rust_panic_cleanup, symObjAddr: 0x104, symBinAddr: 0x1000371B0, symSize: 0x68 }
  - { offset: 0x792C2, size: 0x8, addend: 0x0, symName: ___rust_start_panic, symObjAddr: 0x16C, symBinAddr: 0x100037218, symSize: 0xA8 }
  - { offset: 0x7945F, size: 0x8, addend: 0x0, symName: '__ZN69_$LT$core..alloc..layout..LayoutError$u20$as$u20$core..fmt..Debug$GT$3fmt17h812aa4185421a0b7E', symObjAddr: 0xFC, symBinAddr: 0x10003FA94, symSize: 0x20 }
  - { offset: 0x797D4, size: 0x8, addend: 0x0, symName: __ZN5alloc7raw_vec17capacity_overflow17h5daf3a0631a38371E, symObjAddr: 0x11C, symBinAddr: 0x10003FAB4, symSize: 0x34 }
  - { offset: 0x79814, size: 0x8, addend: 0x0, symName: '__ZN5alloc7raw_vec19RawVec$LT$T$C$A$GT$8grow_one17h5e3f2f661beba17fE', symObjAddr: 0x150, symBinAddr: 0x10003FAE8, symSize: 0xB4 }
  - { offset: 0x799D0, size: 0x8, addend: 0x0, symName: '__ZN5alloc7raw_vec20RawVecInner$LT$A$GT$7reserve21do_reserve_and_handle17hccdb88f65c2dd428E', symObjAddr: 0x204, symBinAddr: 0x100049E74, symSize: 0xB0 }
  - { offset: 0x79AFC, size: 0x8, addend: 0x0, symName: __ZN5alloc7raw_vec11finish_grow17h3e409e685f876440E, symObjAddr: 0x2B4, symBinAddr: 0x100049F24, symSize: 0x88 }
  - { offset: 0x79B71, size: 0x8, addend: 0x0, symName: __ZN5alloc7raw_vec12handle_error17hd28e96ce0f7bdaceE, symObjAddr: 0x33C, symBinAddr: 0x100049FAC, symSize: 0x18 }
  - { offset: 0x79C60, size: 0x8, addend: 0x0, symName: __ZN5alloc5alloc18handle_alloc_error17hd7dc4b576a841fcaE, symObjAddr: 0x354, symBinAddr: 0x100049FC4, symSize: 0x18 }
  - { offset: 0x79CE7, size: 0x8, addend: 0x0, symName: '__ZN93_$LT$alloc..collections..btree..mem..replace..PanicGuard$u20$as$u20$core..ops..drop..Drop$GT$4drop17he7bd9819bd4920cbE', symObjAddr: 0xD48, symBinAddr: 0x10003FB9C, symSize: 0xC }
  - { offset: 0x79E56, size: 0x8, addend: 0x0, symName: __ZN5alloc6string6String15from_utf8_lossy17h2efcb30302cdbdd8E, symObjAddr: 0x2E64, symBinAddr: 0x10003FE28, symSize: 0x238 }
  - { offset: 0x7A38F, size: 0x8, addend: 0x0, symName: __ZN5alloc6string6String12insert_bytes17h3ae92315d2fbac3cE, symObjAddr: 0x4500, symBinAddr: 0x100040060, symSize: 0x94 }
  - { offset: 0x7A51F, size: 0x8, addend: 0x0, symName: '__ZN98_$LT$alloc..string..String$u20$as$u20$core..convert..From$LT$alloc..borrow..Cow$LT$str$GT$$GT$$GT$4from17h3178574b5b627611E', symObjAddr: 0x4CA4, symBinAddr: 0x1000400F4, symSize: 0xBC }
  - { offset: 0x7A744, size: 0x8, addend: 0x0, symName: '__ZN72_$LT$$RF$str$u20$as$u20$alloc..ffi..c_str..CString..new..SpecNewImpl$GT$13spec_new_impl17he799e237f5769890E', symObjAddr: 0xDE0, symBinAddr: 0x10003FBA8, symSize: 0x11C }
  - { offset: 0x7A984, size: 0x8, addend: 0x0, symName: __ZN5alloc3ffi5c_str7CString19_from_vec_unchecked17hef122dba61cb1d38E, symObjAddr: 0x1048, symBinAddr: 0x10003FCC4, symSize: 0x164 }
  - { offset: 0x7ACC3, size: 0x8, addend: 0x0, symName: __ZN5alloc4sync32arcinner_layout_for_value_layout17h62623ff629c43ea9E, symObjAddr: 0x5060, symBinAddr: 0x1000401B0, symSize: 0x74 }
  - { offset: 0x7B24F, size: 0x8, addend: 0x0, symName: __ZN4core3num7flt2dec8strategy6dragon9mul_pow1017he06dee5aea680a00E, symObjAddr: 0x10BC, symBinAddr: 0x100040224, symSize: 0x1E4 }
  - { offset: 0x7B4CD, size: 0x8, addend: 0x0, symName: __ZN4core3num7flt2dec8strategy6dragon15format_shortest17h2e115d1bcd0b3bd6E, symObjAddr: 0x12A0, symBinAddr: 0x100040408, symSize: 0xC84 }
  - { offset: 0x7CF12, size: 0x8, addend: 0x0, symName: __ZN4core3num7flt2dec8strategy6dragon12format_exact17h483f85bc729a1ea6E, symObjAddr: 0x1F24, symBinAddr: 0x10004108C, symSize: 0xB14 }
  - { offset: 0x7E5BB, size: 0x8, addend: 0x0, symName: __ZN4core3num7flt2dec8strategy5grisu19format_shortest_opt17hbc470a6478356c11E, symObjAddr: 0x2AB0, symBinAddr: 0x100041BA0, symSize: 0x854 }
  - { offset: 0x7E67E, size: 0x8, addend: 0x0, symName: __ZN4core3num7flt2dec8strategy5grisu16format_exact_opt17h6a632d842e2bdc9fE, symObjAddr: 0x3380, symBinAddr: 0x1000423F4, symSize: 0x428 }
  - { offset: 0x7E6DA, size: 0x8, addend: 0x0, symName: __ZN4core3num7flt2dec8strategy5grisu16format_exact_opt14possibly_round17h3b94f9d564d56380E, symObjAddr: 0x37A8, symBinAddr: 0x10004281C, symSize: 0x1E0 }
  - { offset: 0x7E85C, size: 0x8, addend: 0x0, symName: __ZN4core3num7flt2dec17digits_to_dec_str17h7ca0ef0ad5a8841aE, symObjAddr: 0x3ACC, symBinAddr: 0x1000429FC, symSize: 0x14C }
  - { offset: 0x7E9A1, size: 0x8, addend: 0x0, symName: __ZN4core3num6bignum8Big32x408mul_pow217h94651afaa29acfecE, symObjAddr: 0x12870, symBinAddr: 0x100047940, symSize: 0x198 }
  - { offset: 0x7EA8E, size: 0x8, addend: 0x0, symName: __ZN4core3num6bignum8Big32x4010mul_digits17h262a495938188cf7E, symObjAddr: 0x12B10, symBinAddr: 0x100047AD8, symSize: 0x2EC }
  - { offset: 0x7EE8D, size: 0x8, addend: 0x0, symName: __ZN4core3num20from_str_radix_panic8do_panic7runtime17he203c78c909d22faE, symObjAddr: 0x15D4C, symBinAddr: 0x100047DC4, symSize: 0x44 }
  - { offset: 0x7EEBF, size: 0x8, addend: 0x0, symName: __ZN4core3num20from_str_radix_panic17ha9da122e309f940cE, symObjAddr: 0x4294, symBinAddr: 0x100049FDC, symSize: 0xC }
  - { offset: 0x7F394, size: 0x8, addend: 0x0, symName: __ZN4core5slice5index26slice_start_index_len_fail8do_panic7runtime17h973fd889d81e5870E, symObjAddr: 0x1A36C, symBinAddr: 0x100048AC4, symSize: 0x50 }
  - { offset: 0x7F3C7, size: 0x8, addend: 0x0, symName: __ZN4core5slice5index26slice_start_index_len_fail17hd534b6b14553cb25E, symObjAddr: 0xE39C, symBinAddr: 0x10004A3FC, symSize: 0xC }
  - { offset: 0x7F40C, size: 0x8, addend: 0x0, symName: __ZN4core5slice5index24slice_end_index_len_fail8do_panic7runtime17hf1d7ed14e20a290eE, symObjAddr: 0x1A3BC, symBinAddr: 0x100048B14, symSize: 0x50 }
  - { offset: 0x7F43F, size: 0x8, addend: 0x0, symName: __ZN4core5slice5index24slice_end_index_len_fail17hb5d58104add3a660E, symObjAddr: 0xE3A8, symBinAddr: 0x10004A408, symSize: 0xC }
  - { offset: 0x7F484, size: 0x8, addend: 0x0, symName: __ZN4core5slice5index22slice_index_order_fail8do_panic7runtime17h928f0bbaed05433fE, symObjAddr: 0x1A40C, symBinAddr: 0x100048B64, symSize: 0x50 }
  - { offset: 0x7F4B7, size: 0x8, addend: 0x0, symName: __ZN4core5slice5index22slice_index_order_fail17ha82730ca4bcf6962E, symObjAddr: 0xE3B4, symBinAddr: 0x10004A414, symSize: 0xC }
  - { offset: 0x7F4E6, size: 0x8, addend: 0x0, symName: __ZN4core5slice5index29slice_end_index_overflow_fail17hfcdea499e51ae46bE, symObjAddr: 0xE3F4, symBinAddr: 0x10004A420, symSize: 0x34 }
  - { offset: 0x7F8DA, size: 0x8, addend: 0x0, symName: __ZN4core5slice6memchr14memchr_aligned17h548a577564a4a6f1E, symObjAddr: 0xDCEC, symBinAddr: 0x100045584, symSize: 0xE8 }
  - { offset: 0x7F9CA, size: 0x8, addend: 0x0, symName: __ZN4core5slice6memchr7memrchr17h56254d77874228b8E, symObjAddr: 0xDDD4, symBinAddr: 0x10004566C, symSize: 0x120 }
  - { offset: 0x7FB1C, size: 0x8, addend: 0x0, symName: __ZN4core5slice4sort6stable5drift11sqrt_approx17hdbcf5037372b25ceE, symObjAddr: 0xDEF4, symBinAddr: 0x10004578C, symSize: 0x38 }
  - { offset: 0x7FB98, size: 0x8, addend: 0x0, symName: __ZN4core5slice4sort6shared9smallsort22panic_on_ord_violation17h732cdad95b134ff0E, symObjAddr: 0xDF2C, symBinAddr: 0x10004A3C4, symSize: 0x38 }
  - { offset: 0x7FE8B, size: 0x8, addend: 0x0, symName: '__ZN42_$LT$str$u20$as$u20$core..fmt..Display$GT$3fmt17h87d1a02f4f40705aE', symObjAddr: 0xD9A4, symBinAddr: 0x100045304, symSize: 0x20 }
  - { offset: 0x80071, size: 0x8, addend: 0x0, symName: __ZN4core3fmt9Formatter12pad_integral17he2eacce7dd9117acE, symObjAddr: 0xB17C, symBinAddr: 0x100043F38, symSize: 0x3D4 }
  - { offset: 0x80364, size: 0x8, addend: 0x0, symName: __ZN4core3fmt9Formatter3pad17hb6e6a9ab85784dc8E, symObjAddr: 0xB5CC, symBinAddr: 0x100044388, symSize: 0x370 }
  - { offset: 0x8081A, size: 0x8, addend: 0x0, symName: __ZN4core3fmt9Formatter19pad_formatted_parts17he9b30e1a66ec1096E, symObjAddr: 0xB93C, symBinAddr: 0x1000446F8, symSize: 0x214 }
  - { offset: 0x809DD, size: 0x8, addend: 0x0, symName: __ZN4core3fmt9Formatter21write_formatted_parts17h9f2fc362a1014b7eE, symObjAddr: 0xBB50, symBinAddr: 0x10004490C, symSize: 0x23C }
  - { offset: 0x80ABF, size: 0x8, addend: 0x0, symName: __ZN4core3fmt9Formatter9write_str17h7c657d24e35011b6E, symObjAddr: 0xBD8C, symBinAddr: 0x100044B48, symSize: 0x1C }
  - { offset: 0x80AD2, size: 0x8, addend: 0x0, symName: __ZN4core3fmt9Formatter12debug_struct17h0edfcd911563680eE, symObjAddr: 0xBDA8, symBinAddr: 0x100044B64, symSize: 0x3C }
  - { offset: 0x80B10, size: 0x8, addend: 0x0, symName: __ZN4core3fmt9Formatter26debug_struct_field1_finish17h70b49879e46ed26dE, symObjAddr: 0xBDE4, symBinAddr: 0x100044BA0, symSize: 0xD0 }
  - { offset: 0x80BE5, size: 0x8, addend: 0x0, symName: __ZN4core3fmt9Formatter26debug_struct_field2_finish17hff85b6c7b6f6d2eeE, symObjAddr: 0xBEB4, symBinAddr: 0x100044C70, symSize: 0x104 }
  - { offset: 0x80CBA, size: 0x8, addend: 0x0, symName: __ZN4core3fmt9Formatter11debug_tuple17hd8300fd3dc1d0c61E, symObjAddr: 0xC4C8, symBinAddr: 0x100044D74, symSize: 0x50 }
  - { offset: 0x80D0D, size: 0x8, addend: 0x0, symName: __ZN4core3fmt9Formatter25debug_tuple_field1_finish17h8fceb87a9a9d18c1E, symObjAddr: 0xC518, symBinAddr: 0x100044DC4, symSize: 0x168 }
  - { offset: 0x80F0E, size: 0x8, addend: 0x0, symName: __ZN4core3fmt9Formatter10debug_list17hf1c6cdcbdf1f3ba1E, symObjAddr: 0xD460, symBinAddr: 0x100044F2C, symSize: 0x48 }
  - { offset: 0x80FC8, size: 0x8, addend: 0x0, symName: __ZN4core3fmt8builders11DebugStruct5field17ha978a5d2cff493aaE, symObjAddr: 0x7DAC, symBinAddr: 0x1000431F8, symSize: 0x1B8 }
  - { offset: 0x811C6, size: 0x8, addend: 0x0, symName: __ZN4core3fmt8builders11DebugStruct6finish17h4b9507155898afe7E, symObjAddr: 0x8028, symBinAddr: 0x1000433B0, symSize: 0x80 }
  - { offset: 0x812C0, size: 0x8, addend: 0x0, symName: '__ZN68_$LT$core..fmt..builders..PadAdapter$u20$as$u20$core..fmt..Write$GT$9write_str17hd4d2932c4f16837dE', symObjAddr: 0x7ADC, symBinAddr: 0x100042F28, symSize: 0x250 }
  - { offset: 0x8156A, size: 0x8, addend: 0x0, symName: '__ZN68_$LT$core..fmt..builders..PadAdapter$u20$as$u20$core..fmt..Write$GT$10write_char17h6fc8a5b2545fc2c0E', symObjAddr: 0x7D2C, symBinAddr: 0x100043178, symSize: 0x80 }
  - { offset: 0x815E8, size: 0x8, addend: 0x0, symName: __ZN4core3fmt8builders10DebugTuple5field17h9d16e7890018df25E, symObjAddr: 0x80A8, symBinAddr: 0x100043430, symSize: 0x14C }
  - { offset: 0x81772, size: 0x8, addend: 0x0, symName: __ZN4core3fmt8builders10DebugTuple6finish17h7607215f7365ee22E, symObjAddr: 0x82B4, symBinAddr: 0x10004357C, symSize: 0xB0 }
  - { offset: 0x818B7, size: 0x8, addend: 0x0, symName: __ZN4core3fmt8builders8DebugSet5entry17hb68fa20bb3071c4dE, symObjAddr: 0x8364, symBinAddr: 0x10004362C, symSize: 0x14C }
  - { offset: 0x81A5A, size: 0x8, addend: 0x0, symName: __ZN4core3fmt8builders9DebugList6finish17h16430afb8c54a225E, symObjAddr: 0x8688, symBinAddr: 0x100043778, symSize: 0x4C }
  - { offset: 0x81AE2, size: 0x8, addend: 0x0, symName: '__ZN57_$LT$core..fmt..Formatter$u20$as$u20$core..fmt..Write$GT$10write_char17ha6b96d921d01544dE', symObjAddr: 0xD5B0, symBinAddr: 0x100044F74, symSize: 0x1C }
  - { offset: 0x81B13, size: 0x8, addend: 0x0, symName: __ZN4core3fmt5Write9write_fmt17hcd98e1f995d59164E, symObjAddr: 0xAE44, symBinAddr: 0x100043D04, symSize: 0x1C }
  - { offset: 0x81B6B, size: 0x8, addend: 0x0, symName: __ZN4core3fmt5float29float_to_decimal_common_exact17h530a8b6ae588a4d3E, symObjAddr: 0x8C40, symBinAddr: 0x1000437C4, symSize: 0x2F8 }
  - { offset: 0x81C26, size: 0x8, addend: 0x0, symName: __ZN4core3fmt5float32float_to_decimal_common_shortest17hcc91d6a00a31b12eE, symObjAddr: 0x9470, symBinAddr: 0x100043ABC, symSize: 0x248 }
  - { offset: 0x81CED, size: 0x8, addend: 0x0, symName: '__ZN4core3fmt5float52_$LT$impl$u20$core..fmt..Display$u20$for$u20$f64$GT$3fmt17h094ba0909d4c1eb2E', symObjAddr: 0x17740, symBinAddr: 0x100047ED0, symSize: 0x48 }
  - { offset: 0x81DF3, size: 0x8, addend: 0x0, symName: '__ZN4core3fmt3num3imp51_$LT$impl$u20$core..fmt..Display$u20$for$u20$u8$GT$3fmt17h66637e91b1e589e3E', symObjAddr: 0x189A8, symBinAddr: 0x1000485F4, symSize: 0xA8 }
  - { offset: 0x81E97, size: 0x8, addend: 0x0, symName: '__ZN4core3fmt3num3imp52_$LT$impl$u20$core..fmt..Display$u20$for$u20$i32$GT$3fmt17h4a90a4adbfd29a38E', symObjAddr: 0x18E84, symBinAddr: 0x1000487D8, symSize: 0x14C }
  - { offset: 0x81F89, size: 0x8, addend: 0x0, symName: '__ZN4core3fmt3num3imp52_$LT$impl$u20$core..fmt..Display$u20$for$u20$u32$GT$3fmt17hd2c69ed5cafbe6b0E', symObjAddr: 0x18D48, symBinAddr: 0x10004869C, symSize: 0x13C }
  - { offset: 0x8202D, size: 0x8, addend: 0x0, symName: '__ZN4core3fmt3num3imp52_$LT$impl$u20$core..fmt..Display$u20$for$u20$u64$GT$3fmt17hf38c5fc9304f84d8E', symObjAddr: 0x18FD0, symBinAddr: 0x100048924, symSize: 0x13C }
  - { offset: 0x820F6, size: 0x8, addend: 0x0, symName: '__ZN4core3fmt3num52_$LT$impl$u20$core..fmt..LowerHex$u20$for$u20$i8$GT$3fmt17h1be4c47b66a40205E', symObjAddr: 0x17AD8, symBinAddr: 0x100047F18, symSize: 0x80 }
  - { offset: 0x821A1, size: 0x8, addend: 0x0, symName: '__ZN4core3fmt3num52_$LT$impl$u20$core..fmt..UpperHex$u20$for$u20$i8$GT$3fmt17h700c60c98d678bfeE', symObjAddr: 0x17B58, symBinAddr: 0x100047F98, symSize: 0x80 }
  - { offset: 0x82270, size: 0x8, addend: 0x0, symName: '__ZN4core3fmt3num53_$LT$impl$u20$core..fmt..LowerHex$u20$for$u20$i32$GT$3fmt17h214440cbc473f377E', symObjAddr: 0x17E98, symBinAddr: 0x100048018, symSize: 0x80 }
  - { offset: 0x82313, size: 0x8, addend: 0x0, symName: '__ZN4core3fmt3num53_$LT$impl$u20$core..fmt..UpperHex$u20$for$u20$i32$GT$3fmt17h7a2b7f33c1e998e6E', symObjAddr: 0x17F18, symBinAddr: 0x100048098, symSize: 0x80 }
  - { offset: 0x823C8, size: 0x8, addend: 0x0, symName: '__ZN4core3fmt3num53_$LT$impl$u20$core..fmt..LowerHex$u20$for$u20$i64$GT$3fmt17h3354b41e7772bf2cE', symObjAddr: 0x18078, symBinAddr: 0x100048118, symSize: 0x80 }
  - { offset: 0x8246B, size: 0x8, addend: 0x0, symName: '__ZN4core3fmt3num53_$LT$impl$u20$core..fmt..UpperHex$u20$for$u20$i64$GT$3fmt17h5317d240ab0014f9E', symObjAddr: 0x180F8, symBinAddr: 0x100048198, symSize: 0x80 }
  - { offset: 0x82526, size: 0x8, addend: 0x0, symName: '__ZN4core3fmt3num50_$LT$impl$u20$core..fmt..Debug$u20$for$u20$u64$GT$3fmt17h8a54847e1f669e98E', symObjAddr: 0x185CC, symBinAddr: 0x100048218, symSize: 0x1E8 }
  - { offset: 0x826C3, size: 0x8, addend: 0x0, symName: '__ZN4core3fmt3num52_$LT$impl$u20$core..fmt..Debug$u20$for$u20$usize$GT$3fmt17h8d94bb121236bd69E', symObjAddr: 0x187B4, symBinAddr: 0x100048400, symSize: 0x1F4 }
  - { offset: 0x8285C, size: 0x8, addend: 0x0, symName: '__ZN59_$LT$core..fmt..Arguments$u20$as$u20$core..fmt..Display$GT$3fmt17hb0f55c3c58af6fa5E', symObjAddr: 0xAF64, symBinAddr: 0x100043D20, symSize: 0x18 }
  - { offset: 0x8288A, size: 0x8, addend: 0x0, symName: __ZN4core3fmt5write17h37cdb50ab8af3d55E, symObjAddr: 0xAF7C, symBinAddr: 0x100043D38, symSize: 0x200 }
  - { offset: 0x82A99, size: 0x8, addend: 0x0, symName: __ZN4core3fmt9Formatter12pad_integral12write_prefix17h7ffd7fd6760f3ed4E, symObjAddr: 0xB550, symBinAddr: 0x10004430C, symSize: 0x7C }
  - { offset: 0x82AF0, size: 0x8, addend: 0x0, symName: '__ZN42_$LT$$RF$T$u20$as$u20$core..fmt..Debug$GT$3fmt17h096e85207577f628E', symObjAddr: 0x1A248, symBinAddr: 0x100048A60, symSize: 0x14 }
  - { offset: 0x82B0A, size: 0x8, addend: 0x0, symName: '__ZN42_$LT$$RF$T$u20$as$u20$core..fmt..Debug$GT$3fmt17h0cd89424adf875eeE', symObjAddr: 0x1A25C, symBinAddr: 0x100048A74, symSize: 0x18 }
  - { offset: 0x82B24, size: 0x8, addend: 0x0, symName: '__ZN42_$LT$$RF$T$u20$as$u20$core..fmt..Debug$GT$3fmt17h884ca45b9bf56ddcE', symObjAddr: 0x1A274, symBinAddr: 0x100048A8C, symSize: 0x1C }
  - { offset: 0x82B5D, size: 0x8, addend: 0x0, symName: '__ZN40_$LT$str$u20$as$u20$core..fmt..Debug$GT$3fmt17h5319395a62073c25E', symObjAddr: 0xD630, symBinAddr: 0x100044F90, symSize: 0x374 }
  - { offset: 0x82FB2, size: 0x8, addend: 0x0, symName: '__ZN41_$LT$char$u20$as$u20$core..fmt..Debug$GT$3fmt17h05d1bd81abaf1a43E', symObjAddr: 0xD9C4, symBinAddr: 0x100045324, symSize: 0xAC }
  - { offset: 0x830B5, size: 0x8, addend: 0x0, symName: '__ZN43_$LT$char$u20$as$u20$core..fmt..Display$GT$3fmt17h9382b8664acca86bE', symObjAddr: 0xDA70, symBinAddr: 0x1000453D0, symSize: 0xF0 }
  - { offset: 0x8313A, size: 0x8, addend: 0x0, symName: __ZN4core3fmt17pointer_fmt_inner17he4ac33e372027645E, symObjAddr: 0xDB60, symBinAddr: 0x1000454C0, symSize: 0xC4 }
  - { offset: 0x831F3, size: 0x8, addend: 0x0, symName: '__ZN44_$LT$$RF$T$u20$as$u20$core..fmt..Display$GT$3fmt17hdde6a98d74f51768E', symObjAddr: 0x1A2B8, symBinAddr: 0x100048AA8, symSize: 0x1C }
  - { offset: 0x8344C, size: 0x8, addend: 0x0, symName: __ZN4core6option13unwrap_failed17h36089c7b3b3b33afE, symObjAddr: 0x7484, symBinAddr: 0x10004A02C, symSize: 0x1C }
  - { offset: 0x83466, size: 0x8, addend: 0x0, symName: __ZN4core6option13expect_failed17h8f1c2a48df7a64c4E, symObjAddr: 0x74A0, symBinAddr: 0x10004A048, symSize: 0x48 }
  - { offset: 0x834F9, size: 0x8, addend: 0x0, symName: '__ZN71_$LT$core..ops..range..Range$LT$Idx$GT$$u20$as$u20$core..fmt..Debug$GT$3fmt17hc9ce3c5c6e5763c7E', symObjAddr: 0x442C, symBinAddr: 0x100042B48, symSize: 0x5C }
  - { offset: 0x8379F, size: 0x8, addend: 0x0, symName: __ZN4core6result13unwrap_failed17hb554a75b817cbb70E, symObjAddr: 0x7A08, symBinAddr: 0x10004A368, symSize: 0x5C }
  - { offset: 0x8383B, size: 0x8, addend: 0x0, symName: '__ZN63_$LT$core..cell..BorrowMutError$u20$as$u20$core..fmt..Debug$GT$3fmt17hdf1c7ebb3a5ada4bE', symObjAddr: 0x4880, symBinAddr: 0x100042BA4, symSize: 0x24 }
  - { offset: 0x83897, size: 0x8, addend: 0x0, symName: __ZN4core4cell22panic_already_borrowed17h7d353449a670e04bE, symObjAddr: 0x48C4, symBinAddr: 0x100049FE8, symSize: 0x44 }
  - { offset: 0x8391F, size: 0x8, addend: 0x0, symName: '__ZN4core4char7methods22_$LT$impl$u20$char$GT$16escape_debug_ext17h497ac77d3221dd87E', symObjAddr: 0x49FC, symBinAddr: 0x100042BC8, symSize: 0x260 }
  - { offset: 0x83B34, size: 0x8, addend: 0x0, symName: __ZN4core4char7methods15encode_utf8_raw8do_panic7runtime17h0fe98f565620d73fE, symObjAddr: 0x15D9C, symBinAddr: 0x100047E08, symSize: 0xC8 }
  - { offset: 0x83BCA, size: 0x8, addend: 0x0, symName: __ZN4core7unicode12unicode_data15grapheme_extend11lookup_slow17hb0697b707e3e3c47E, symObjAddr: 0x1BBB8, symBinAddr: 0x100048BD8, symSize: 0x174 }
  - { offset: 0x83DA1, size: 0x8, addend: 0x0, symName: __ZN4core7unicode12unicode_data2cc6lookup17hf45f0e562ba11044E, symObjAddr: 0x1BB94, symBinAddr: 0x100048BB4, symSize: 0x24 }
  - { offset: 0x83E08, size: 0x8, addend: 0x0, symName: __ZN4core7unicode9printable12is_printable17ha688011d3d1a4a1dE, symObjAddr: 0x11A14, symBinAddr: 0x100047650, symSize: 0x2C0 }
  - { offset: 0x84244, size: 0x8, addend: 0x0, symName: __ZN4core3ffi5c_str4CStr19from_bytes_with_nul17hc69b92b3c3ead59dE, symObjAddr: 0x5044, symBinAddr: 0x100042E28, symSize: 0x100 }
  - { offset: 0x84331, size: 0x8, addend: 0x0, symName: __ZN4core9panicking9panic_fmt17hd4003258f6ab7b29E, symObjAddr: 0x75D8, symBinAddr: 0x10004A090, symSize: 0x20 }
  - { offset: 0x84374, size: 0x8, addend: 0x0, symName: __ZN4core9panicking18panic_nounwind_fmt17hd8d3f0c92bbab643E, symObjAddr: 0x75F8, symBinAddr: 0x10004A0B0, symSize: 0x3C }
  - { offset: 0x843B9, size: 0x8, addend: 0x0, symName: __ZN4core9panicking5panic17h86f2c7562f835270E, symObjAddr: 0x7634, symBinAddr: 0x10004A0EC, symSize: 0x34 }
  - { offset: 0x843E8, size: 0x8, addend: 0x0, symName: __ZN4core9panicking14panic_nounwind17hd38337cbf8361018E, symObjAddr: 0x7668, symBinAddr: 0x10004A120, symSize: 0x3C }
  - { offset: 0x84417, size: 0x8, addend: 0x0, symName: __ZN4core9panicking26panic_nounwind_nobacktrace17heba51f1bb932a249E, symObjAddr: 0x76A4, symBinAddr: 0x10004A15C, symSize: 0x3C }
  - { offset: 0x84445, size: 0x8, addend: 0x0, symName: __ZN4core9panicking18panic_bounds_check17h4fadfa91bf056b25E, symObjAddr: 0x7728, symBinAddr: 0x10004A198, symSize: 0x50 }
  - { offset: 0x84476, size: 0x8, addend: 0x0, symName: __ZN4core9panicking19panic_cannot_unwind17h47d96b2bff7532cbE, symObjAddr: 0x7804, symBinAddr: 0x10004A1E8, symSize: 0x18 }
  - { offset: 0x84490, size: 0x8, addend: 0x0, symName: __ZN4core9panicking16panic_in_cleanup17h0f12492716d4fa3bE, symObjAddr: 0x781C, symBinAddr: 0x10004A200, symSize: 0x18 }
  - { offset: 0x844AA, size: 0x8, addend: 0x0, symName: __ZN4core9panicking13assert_failed17hc970b74687d3d7f8E, symObjAddr: 0x7898, symBinAddr: 0x10004A218, symSize: 0x24 }
  - { offset: 0x844C4, size: 0x8, addend: 0x0, symName: __ZN4core9panicking13assert_failed17he7b1cd9526d2f1d7E, symObjAddr: 0x78BC, symBinAddr: 0x10004A23C, symSize: 0x24 }
  - { offset: 0x844DE, size: 0x8, addend: 0x0, symName: __ZN4core9panicking19assert_failed_inner17h5785da7a1ff2c9ddE, symObjAddr: 0x7900, symBinAddr: 0x10004A260, symSize: 0x108 }
  - { offset: 0x8452B, size: 0x8, addend: 0x0, symName: __ZN4core9panicking11panic_const24panic_const_add_overflow17h63e3b16340b84fb3E, symObjAddr: 0x163C8, symBinAddr: 0x10004A494, symSize: 0x34 }
  - { offset: 0x8455A, size: 0x8, addend: 0x0, symName: __ZN4core9panicking11panic_const24panic_const_sub_overflow17h17add28fce8f691dE, symObjAddr: 0x163FC, symBinAddr: 0x10004A4C8, symSize: 0x34 }
  - { offset: 0x84589, size: 0x8, addend: 0x0, symName: __ZN4core9panicking11panic_const24panic_const_mul_overflow17h311bdec4ccbb6b11E, symObjAddr: 0x16430, symBinAddr: 0x10004A4FC, symSize: 0x34 }
  - { offset: 0x845B8, size: 0x8, addend: 0x0, symName: __ZN4core9panicking11panic_const23panic_const_div_by_zero17hec5a43467ad56e77E, symObjAddr: 0x16568, symBinAddr: 0x10004A530, symSize: 0x34 }
  - { offset: 0x845E7, size: 0x8, addend: 0x0, symName: __ZN4core9panicking11panic_const23panic_const_rem_by_zero17hbf557e3f0de7fddaE, symObjAddr: 0x1659C, symBinAddr: 0x10004A564, symSize: 0x34 }
  - { offset: 0x84762, size: 0x8, addend: 0x0, symName: __ZN4core3str7pattern11StrSearcher3new17h4d7c09c699bba8f1E, symObjAddr: 0xFB38, symBinAddr: 0x1000463DC, symSize: 0x904 }
  - { offset: 0x84A7A, size: 0x8, addend: 0x0, symName: '__ZN4core3str21_$LT$impl$u20$str$GT$18split_at_unchecked17h7f352f511b0f5e4cE', symObjAddr: 0x10E98, symBinAddr: 0x100047630, symSize: 0x20 }
  - { offset: 0x84AF2, size: 0x8, addend: 0x0, symName: __ZN4core3str5count14do_count_chars17h06e1e9ea44e65e6aE, symObjAddr: 0xEA18, symBinAddr: 0x100045A08, symSize: 0x724 }
  - { offset: 0x84E51, size: 0x8, addend: 0x0, symName: __ZN4core3str5count23char_count_general_case17h3142e5623975cf76E, symObjAddr: 0xF13C, symBinAddr: 0x10004612C, symSize: 0x2B0 }
  - { offset: 0x85044, size: 0x8, addend: 0x0, symName: __ZN4core3str6traits23str_index_overflow_fail17haeb6a9a5345eef27E, symObjAddr: 0xFB04, symBinAddr: 0x10004A454, symSize: 0x34 }
  - { offset: 0x85078, size: 0x8, addend: 0x0, symName: __ZN4core3str8converts9from_utf817h0651d1dbbdccd497E, symObjAddr: 0xE590, symBinAddr: 0x1000457C4, symSize: 0x244 }
  - { offset: 0x850E6, size: 0x8, addend: 0x0, symName: '__ZN60_$LT$core..str..lossy..Debug$u20$as$u20$core..fmt..Debug$GT$3fmt17h824aed2c728e8fd3E', symObjAddr: 0x1043C, symBinAddr: 0x100046CE0, symSize: 0x3E4 }
  - { offset: 0x8547A, size: 0x8, addend: 0x0, symName: '__ZN87_$LT$core..str..lossy..Utf8Chunks$u20$as$u20$core..iter..traits..iterator..Iterator$GT$4next17haf81e173e03ff9c0E', symObjAddr: 0x10820, symBinAddr: 0x1000470C4, symSize: 0x1DC }
  - { offset: 0x8567D, size: 0x8, addend: 0x0, symName: __ZN4core3str16slice_error_fail17h069de0708a6d218cE, symObjAddr: 0x10AC8, symBinAddr: 0x10004A488, symSize: 0xC }
  - { offset: 0x85697, size: 0x8, addend: 0x0, symName: __ZN4core3str19slice_error_fail_rt17h6e7ab7c8054f9191E, symObjAddr: 0x10B08, symBinAddr: 0x1000472A0, symSize: 0x390 }
  - { offset: 0x85959, size: 0x8, addend: 0x0, symName: __ZN4core5alloc6layout6Layout19is_size_align_valid17h425f698026052ff5E, symObjAddr: 0x11F70, symBinAddr: 0x100047910, symSize: 0x30 }
  - { offset: 0x85998, size: 0x8, addend: 0x0, symName: _OUTLINED_FUNCTION_0, symObjAddr: 0x1C3D4, symBinAddr: 0x100048D4C, symSize: 0x10 }
...
